GAS LISTING /tmp/cc49WQNc.s 			page 1


   1              		.file	"ccb.cpp"
   2              		.option nopic
   3              		.option norelax
   4              		.attribute arch, "rv64i2p0_m2p0_a2p0"
   5              		.attribute unaligned_access, 0
   6              		.attribute stack_align, 16
   7              		.text
   8              	.Ltext0:
   9              		.align	2
  10              		.globl	_ZN3CCB15createCoroutineEPFvvE
  12              	_ZN3CCB15createCoroutineEPFvvE:
  13              	.LFB19:
  14              		.file 1 "src/ccb.cpp"
   1:src/ccb.cpp   **** #include "../h/ccb.hpp"
   2:src/ccb.cpp   **** #include "../h/riscv.hpp"
   3:src/ccb.cpp   **** #include "../h/scheduler.hpp"
   4:src/ccb.cpp   **** 
   5:src/ccb.cpp   **** CCB *CCB::running = nullptr;
   6:src/ccb.cpp   **** 
   7:src/ccb.cpp   **** CCB *CCB::createCoroutine(Body body) { return new CCB(body); }
  15              		.loc 1 7 38
  16              		.cfi_startproc
  17              		.cfi_personality 0x9b,DW.ref.__gxx_personality_v0
  18              		.cfi_lsda 0x1b,.LLSDA19
  19              	.LVL0:
  20 0000 130101FE 		addi	sp,sp,-32
  21              		.cfi_def_cfa_offset 32
  22 0004 233C1100 		sd	ra,24(sp)
  23 0008 23388100 		sd	s0,16(sp)
  24 000c 23349100 		sd	s1,8(sp)
  25 0010 23302101 		sd	s2,0(sp)
  26              		.cfi_offset 1, -8
  27              		.cfi_offset 8, -16
  28              		.cfi_offset 9, -24
  29              		.cfi_offset 18, -32
  30 0014 13040102 		addi	s0,sp,32
  31              		.cfi_def_cfa 8, 0
  32 0018 13090500 		mv	s2,a0
  33              		.loc 1 7 40
  34              		.loc 1 7 59 is_stmt 0
  35 001c 13058002 		li	a0,40
  36              	.LVL1:
  37              	.LEHB0:
  38 0020 97000000 		call	_Znwm
  38      E7800000 
  39              	.LVL2:
  40              	.LEHE0:
  41 0028 93040500 		mv	s1,a0
  42              	.LVL3:
  43              	.LBB7:
  44              	.LBB8:
  45              		.file 2 "src/../h/ccb.hpp"
   1:src/../h/ccb.hpp **** #ifndef cbb_hpp
   2:src/../h/ccb.hpp **** #define cbb_hpp
   3:src/../h/ccb.hpp **** #include "../lib/hw.h"
   4:src/../h/ccb.hpp **** #include "scheduler.hpp"
   5:src/../h/ccb.hpp **** // Vezbe 7
GAS LISTING /tmp/cc49WQNc.s 			page 2


   6:src/../h/ccb.hpp **** 
   7:src/../h/ccb.hpp **** class CCB {
   8:src/../h/ccb.hpp **** public:
   9:src/../h/ccb.hpp ****   using Body = void (*)();
  10:src/../h/ccb.hpp ****   static CCB *createCoroutine(Body body);
  11:src/../h/ccb.hpp ****   bool isFinished() const { return finished; }
  12:src/../h/ccb.hpp ****   void setFinished(bool f) { CCB::finished = f; }
  13:src/../h/ccb.hpp ****   static void yield();
  14:src/../h/ccb.hpp ****   ~CCB() { delete[] stack; }
  15:src/../h/ccb.hpp ****   static CCB *running;
  16:src/../h/ccb.hpp **** 
  17:src/../h/ccb.hpp **** private:
  18:src/../h/ccb.hpp ****   CCB(Body body)
  19:src/../h/ccb.hpp ****       : body(body), stack(body != nullptr ? new uint64[STACK_SIZE] : nullptr),
  20:src/../h/ccb.hpp ****         context({body != nullptr ? (uint64)body : 0,
  21:src/../h/ccb.hpp ****                  stack != nullptr ? (uint64)&stack[STACK_SIZE] : 0}),
  22:src/../h/ccb.hpp ****         finished(false) {
  46              		.loc 2 22 23
  47 002c 23302501 		sd	s2,0(a0)
  19:src/../h/ccb.hpp ****         context({body != nullptr ? (uint64)body : 0,
  48              		.loc 2 19 43
  49 0030 630A0900 		beqz	s2,.L7
  19:src/../h/ccb.hpp ****         context({body != nullptr ? (uint64)body : 0,
  50              		.loc 2 19 66
  51 0034 37250000 		li	a0,8192
  52              	.LEHB1:
  53 0038 97000000 		call	_Znam
  53      E7800000 
  54              	.LVL4:
  55 0040 6F008000 		j	.L2
  56              	.L7:
  19:src/../h/ccb.hpp ****         context({body != nullptr ? (uint64)body : 0,
  57              		.loc 2 19 43
  58 0044 13050000 		li	a0,0
  59              	.L2:
  60              		.loc 2 22 23
  61 0048 23B4A400 		sd	a0,8(s1)
  20:src/../h/ccb.hpp ****                  stack != nullptr ? (uint64)&stack[STACK_SIZE] : 0}),
  62              		.loc 2 20 34
  63 004c 630A0902 		beqz	s2,.L8
  64 0050 93070900 		mv	a5,s2
  65              	.L3:
  66              		.loc 2 22 23
  67 0054 23B8F400 		sd	a5,16(s1)
  21:src/../h/ccb.hpp ****         finished(false) {
  68              		.loc 2 21 35
  69 0058 63080502 		beqz	a0,.L9
  21:src/../h/ccb.hpp ****         finished(false) {
  70              		.loc 2 21 45
  71 005c B7270000 		li	a5,8192
  72 0060 3305F500 		add	a0,a0,a5
  73              	.L4:
  74              		.loc 2 22 23
  75 0064 23BCA400 		sd	a0,24(s1)
  76 0068 23800402 		sb	zero,32(s1)
  23:src/../h/ccb.hpp ****     if (body != nullptr) {
  77              		.loc 2 23 5 is_stmt 1
GAS LISTING /tmp/cc49WQNc.s 			page 3


  78 006c 63000904 		beqz	s2,.L1
  24:src/../h/ccb.hpp ****       Scheduler::put(this);
  79              		.loc 2 24 7
  80              		.loc 2 24 21 is_stmt 0
  81 0070 13850400 		mv	a0,s1
  82 0074 97000000 		call	_ZN9Scheduler3putEP3CCB
  82      E7800000 
  83              	.LVL5:
  84              	.LEHE1:
  85 007c 6F000003 		j	.L1
  86              	.L8:
  20:src/../h/ccb.hpp ****                  stack != nullptr ? (uint64)&stack[STACK_SIZE] : 0}),
  87              		.loc 2 20 34
  88 0080 93070000 		li	a5,0
  89 0084 6FF01FFD 		j	.L3
  90              	.L9:
  21:src/../h/ccb.hpp ****         finished(false) {
  91              		.loc 2 21 35
  92 0088 13050000 		li	a0,0
  93 008c 6FF09FFD 		j	.L4
  94              	.L10:
  95 0090 13090500 		mv	s2,a0
  96              	.LVL6:
  97              	.LBE8:
  98              	.LBE7:
  99              		.loc 1 7 59
 100 0094 13850400 		mv	a0,s1
 101 0098 97000000 		call	_ZdlPv
 101      E7800000 
 102              	.LVL7:
 103 00a0 13050900 		mv	a0,s2
 104              	.LEHB2:
 105 00a4 97000000 		call	_Unwind_Resume
 105      E7800000 
 106              	.LVL8:
 107              	.LEHE2:
 108              	.L1:
 109              		.loc 1 7 62
 110 00ac 13850400 		mv	a0,s1
 111 00b0 83308101 		ld	ra,24(sp)
 112              		.cfi_restore 1
 113 00b4 03340101 		ld	s0,16(sp)
 114              		.cfi_restore 8
 115              		.cfi_def_cfa 2, 32
 116 00b8 83348100 		ld	s1,8(sp)
 117              		.cfi_restore 9
 118              	.LVL9:
 119 00bc 03390100 		ld	s2,0(sp)
 120              		.cfi_restore 18
 121              	.LVL10:
 122 00c0 13010102 		addi	sp,sp,32
 123              		.cfi_def_cfa_offset 0
 124 00c4 67800000 		jr	ra
 125              		.cfi_endproc
 126              	.LFE19:
 127              		.globl	__gxx_personality_v0
 128              		.section	.gcc_except_table,"aw",@progbits
GAS LISTING /tmp/cc49WQNc.s 			page 4


 129              	.LLSDA19:
 130 0000 FF       		.byte	0xff
 131 0001 FF       		.byte	0xff
 132 0002 03       		.byte	0x3
 133 0003 27       		.byte	0x27
 134 0004 00000000 		.4byte	.LEHB0-.LFB19
 135 0008 00000000 		.4byte	.LEHE0-.LEHB0
 136 000c 00000000 		.4byte	0
 137 0010 00       		.byte	0
 138 0011 00000000 		.4byte	.LEHB1-.LFB19
 139 0015 00000000 		.4byte	.LEHE1-.LEHB1
 140 0019 00000000 		.4byte	.L10-.LFB19
 141 001d 00       		.byte	0
 142 001e 00000000 		.4byte	.LEHB2-.LFB19
 143 0022 00000000 		.4byte	.LEHE2-.LEHB2
 144 0026 00000000 		.4byte	0
 145 002a 00       		.byte	0
 146              		.text
 148              		.align	2
 149              		.globl	_ZN3CCB8dispatchEv
 151              	_ZN3CCB8dispatchEv:
 152              	.LFB21:
   8:src/ccb.cpp   **** 
   9:src/ccb.cpp   **** void CCB::yield() {
  10:src/ccb.cpp   ****   Riscv::pushRegisters();
  11:src/ccb.cpp   ****   CCB::dispatch();
  12:src/ccb.cpp   ****   Riscv::popRegisters();
  13:src/ccb.cpp   **** };
  14:src/ccb.cpp   **** 
  15:src/ccb.cpp   **** void CCB::dispatch() {
 153              		.loc 1 15 22 is_stmt 1
 154              		.cfi_startproc
 155 00c8 130101FE 		addi	sp,sp,-32
 156              		.cfi_def_cfa_offset 32
 157 00cc 233C1100 		sd	ra,24(sp)
 158 00d0 23388100 		sd	s0,16(sp)
 159 00d4 23349100 		sd	s1,8(sp)
 160              		.cfi_offset 1, -8
 161              		.cfi_offset 8, -16
 162              		.cfi_offset 9, -24
 163 00d8 13040102 		addi	s0,sp,32
 164              		.cfi_def_cfa 8, 0
  16:src/ccb.cpp   ****   CCB *old = running;
 165              		.loc 1 16 3
 166              		.loc 1 16 8 is_stmt 0
 167 00dc 97040000 		ld	s1,_ZN3CCB7runningE
 167      83B40400 
 168              	.LVL11:
  17:src/ccb.cpp   ****   if (!old->isFinished()) {
 169              		.loc 1 17 3 is_stmt 1
 170              	.LBB9:
 171              	.LBB10:
  11:src/../h/ccb.hpp ****   void setFinished(bool f) { CCB::finished = f; }
 172              		.loc 2 11 29
  11:src/../h/ccb.hpp ****   void setFinished(bool f) { CCB::finished = f; }
 173              		.loc 2 11 36 is_stmt 0
 174 00e4 83C70402 		lbu	a5,32(s1)
GAS LISTING /tmp/cc49WQNc.s 			page 5


 175              	.LVL12:
 176              	.LBE10:
 177              	.LBE9:
 178              		.loc 1 17 3
 179 00e8 638C0702 		beqz	a5,.L15
 180              	.L13:
  18:src/ccb.cpp   ****     Scheduler::put(old);
  19:src/ccb.cpp   ****   }
  20:src/ccb.cpp   ****   running = Scheduler::get();
 181              		.loc 1 20 3 is_stmt 1
 182              		.loc 1 20 27 is_stmt 0
 183 00ec 97000000 		call	_ZN9Scheduler3getEv
 183      E7800000 
 184              	.LVL13:
 185              		.loc 1 20 11
 186 00f4 97070000 		sd	a0,_ZN3CCB7runningE,a5
 186      23B0A700 
  21:src/ccb.cpp   **** 
  22:src/ccb.cpp   ****   CCB::contextSwitch(&old->context, &running->context);
 187              		.loc 1 22 3 is_stmt 1
 188              		.loc 1 22 21 is_stmt 0
 189 00fc 93050501 		addi	a1,a0,16
 190 0100 13850401 		addi	a0,s1,16
 191 0104 97000000 		call	_ZN3CCB13contextSwitchEPNS_7ContextES1_
 191      E7800000 
 192              	.LVL14:
  23:src/ccb.cpp   **** }...
 193              		.loc 1 23 1
 194 010c 83308101 		ld	ra,24(sp)
 195              		.cfi_remember_state
 196              		.cfi_restore 1
 197 0110 03340101 		ld	s0,16(sp)
 198              		.cfi_restore 8
 199              		.cfi_def_cfa 2, 32
 200 0114 83348100 		ld	s1,8(sp)
 201              		.cfi_restore 9
 202              	.LVL15:
 203 0118 13010102 		addi	sp,sp,32
 204              		.cfi_def_cfa_offset 0
 205 011c 67800000 		jr	ra
 206              	.LVL16:
 207              	.L15:
 208              		.cfi_restore_state
  18:src/ccb.cpp   ****     Scheduler::put(old);
 209              		.loc 1 18 5 is_stmt 1
  18:src/ccb.cpp   ****     Scheduler::put(old);
 210              		.loc 1 18 19 is_stmt 0
 211 0120 13850400 		mv	a0,s1
 212 0124 97000000 		call	_ZN9Scheduler3putEP3CCB
 212      E7800000 
 213              	.LVL17:
 214 012c 6FF01FFC 		j	.L13
 215              		.cfi_endproc
 216              	.LFE21:
 218              		.align	2
 219              		.globl	_ZN3CCB5yieldEv
 221              	_ZN3CCB5yieldEv:
GAS LISTING /tmp/cc49WQNc.s 			page 6


 222              	.LFB20:
   9:src/ccb.cpp   **** void CCB::yield() {
 223              		.loc 1 9 19 is_stmt 1
 224              		.cfi_startproc
 225 0130 130101FF 		addi	sp,sp,-16
 226              		.cfi_def_cfa_offset 16
 227 0134 23341100 		sd	ra,8(sp)
 228 0138 23308100 		sd	s0,0(sp)
 229              		.cfi_offset 1, -8
 230              		.cfi_offset 8, -16
 231 013c 13040101 		addi	s0,sp,16
 232              		.cfi_def_cfa 8, 0
  10:src/ccb.cpp   ****   Riscv::pushRegisters();
 233              		.loc 1 10 3
  10:src/ccb.cpp   ****   Riscv::pushRegisters();
 234              		.loc 1 10 23 is_stmt 0
 235 0140 97000000 		call	_ZN5Riscv13pushRegistersEv
 235      E7800000 
 236              	.LVL18:
  11:src/ccb.cpp   ****   CCB::dispatch();
 237              		.loc 1 11 3 is_stmt 1
  11:src/ccb.cpp   ****   CCB::dispatch();
 238              		.loc 1 11 16 is_stmt 0
 239 0148 97000000 		call	_ZN3CCB8dispatchEv
 239      E7800000 
 240              	.LVL19:
  12:src/ccb.cpp   ****   Riscv::popRegisters();
 241              		.loc 1 12 3 is_stmt 1
  12:src/ccb.cpp   ****   Riscv::popRegisters();
 242              		.loc 1 12 22 is_stmt 0
 243 0150 97000000 		call	_ZN5Riscv12popRegistersEv
 243      E7800000 
 244              	.LVL20:
  13:src/ccb.cpp   **** };
 245              		.loc 1 13 1
 246 0158 83308100 		ld	ra,8(sp)
 247              		.cfi_restore 1
 248 015c 03340100 		ld	s0,0(sp)
 249              		.cfi_restore 8
 250              		.cfi_def_cfa 2, 16
 251 0160 13010101 		addi	sp,sp,16
 252              		.cfi_def_cfa_offset 0
 253 0164 67800000 		jr	ra
 254              		.cfi_endproc
 255              	.LFE20:
 257              		.globl	_ZN3CCB7runningE
 258              		.section	.sbss,"aw",@nobits
 259              		.align	3
 262              	_ZN3CCB7runningE:
 263 0000 00000000 		.zero	8
 263      00000000 
 264              		.text
 265              	.Letext0:
 266              		.file 3 "src/../h/../lib/hw.h"
 267              		.file 4 "src/../h/scheduler.hpp"
 268              		.file 5 "src/../h/riscv.hpp"
 2075              		.align	3
GAS LISTING /tmp/cc49WQNc.s 			page 7


 2078              	DW.ref.__gxx_personality_v0:
 2079 0000 00000000 		.dword	__gxx_personality_v0
 2079      00000000 
 2080              		.ident	"GCC: () 9.3.0"
GAS LISTING /tmp/cc49WQNc.s 			page 8


DEFINED SYMBOLS
                            *ABS*:0000000000000000 ccb.cpp
     /tmp/cc49WQNc.s:12     .text:0000000000000000 _ZN3CCB15createCoroutineEPFvvE
     /tmp/cc49WQNc.s:16     .text:0000000000000000 .L0 
     /tmp/cc49WQNc.s:2078   .sdata.DW.ref.__gxx_personality_v0:0000000000000000 DW.ref.__gxx_personality_v0
     /tmp/cc49WQNc.s:20     .text:0000000000000000 .L0 
     /tmp/cc49WQNc.s:21     .text:0000000000000004 .L0 
     /tmp/cc49WQNc.s:26     .text:0000000000000014 .L0 
     /tmp/cc49WQNc.s:27     .text:0000000000000014 .L0 
     /tmp/cc49WQNc.s:28     .text:0000000000000014 .L0 
     /tmp/cc49WQNc.s:29     .text:0000000000000014 .L0 
     /tmp/cc49WQNc.s:31     .text:0000000000000018 .L0 
     /tmp/cc49WQNc.s:34     .text:000000000000001c .L0 
     /tmp/cc49WQNc.s:35     .text:000000000000001c .L0 
     /tmp/cc49WQNc.s:47     .text:000000000000002c .L0 
     /tmp/cc49WQNc.s:49     .text:0000000000000030 .L0 
     /tmp/cc49WQNc.s:51     .text:0000000000000034 .L0 
     /tmp/cc49WQNc.s:58     .text:0000000000000044 .L0 
     /tmp/cc49WQNc.s:61     .text:0000000000000048 .L0 
     /tmp/cc49WQNc.s:63     .text:000000000000004c .L0 
     /tmp/cc49WQNc.s:67     .text:0000000000000054 .L0 
     /tmp/cc49WQNc.s:69     .text:0000000000000058 .L0 
     /tmp/cc49WQNc.s:71     .text:000000000000005c .L0 
     /tmp/cc49WQNc.s:75     .text:0000000000000064 .L0 
     /tmp/cc49WQNc.s:78     .text:000000000000006c .L0 
     /tmp/cc49WQNc.s:80     .text:0000000000000070 .L0 
     /tmp/cc49WQNc.s:81     .text:0000000000000070 .L0 
     /tmp/cc49WQNc.s:88     .text:0000000000000080 .L0 
     /tmp/cc49WQNc.s:92     .text:0000000000000088 .L0 
     /tmp/cc49WQNc.s:100    .text:0000000000000094 .L0 
     /tmp/cc49WQNc.s:110    .text:00000000000000ac .L0 
     /tmp/cc49WQNc.s:112    .text:00000000000000b4 .L0 
     /tmp/cc49WQNc.s:114    .text:00000000000000b8 .L0 
     /tmp/cc49WQNc.s:115    .text:00000000000000b8 .L0 
     /tmp/cc49WQNc.s:117    .text:00000000000000bc .L0 
     /tmp/cc49WQNc.s:120    .text:00000000000000c0 .L0 
     /tmp/cc49WQNc.s:123    .text:00000000000000c4 .L0 
     /tmp/cc49WQNc.s:125    .text:00000000000000c8 .L0 
     /tmp/cc49WQNc.s:151    .text:00000000000000c8 _ZN3CCB8dispatchEv
     /tmp/cc49WQNc.s:154    .text:00000000000000c8 .L0 
     /tmp/cc49WQNc.s:155    .text:00000000000000c8 .L0 
     /tmp/cc49WQNc.s:156    .text:00000000000000cc .L0 
     /tmp/cc49WQNc.s:160    .text:00000000000000d8 .L0 
     /tmp/cc49WQNc.s:161    .text:00000000000000d8 .L0 
     /tmp/cc49WQNc.s:162    .text:00000000000000d8 .L0 
     /tmp/cc49WQNc.s:164    .text:00000000000000dc .L0 
     /tmp/cc49WQNc.s:166    .text:00000000000000dc .L0 
     /tmp/cc49WQNc.s:262    .sbss:0000000000000000 _ZN3CCB7runningE
     /tmp/cc49WQNc.s:167    .text:00000000000000dc .L0 
     /tmp/cc49WQNc.s:172    .text:00000000000000e4 .L0 
     /tmp/cc49WQNc.s:173    .text:00000000000000e4 .L0 
     /tmp/cc49WQNc.s:174    .text:00000000000000e4 .L0 
     /tmp/cc49WQNc.s:179    .text:00000000000000e8 .L0 
     /tmp/cc49WQNc.s:182    .text:00000000000000ec .L0 
     /tmp/cc49WQNc.s:183    .text:00000000000000ec .L0 
     /tmp/cc49WQNc.s:186    .text:00000000000000f4 .L0 
     /tmp/cc49WQNc.s:188    .text:00000000000000fc .L0 
GAS LISTING /tmp/cc49WQNc.s 			page 9


     /tmp/cc49WQNc.s:189    .text:00000000000000fc .L0 
     /tmp/cc49WQNc.s:194    .text:000000000000010c .L0 
     /tmp/cc49WQNc.s:195    .text:0000000000000110 .L0 
     /tmp/cc49WQNc.s:196    .text:0000000000000110 .L0 
     /tmp/cc49WQNc.s:198    .text:0000000000000114 .L0 
     /tmp/cc49WQNc.s:199    .text:0000000000000114 .L0 
     /tmp/cc49WQNc.s:201    .text:0000000000000118 .L0 
     /tmp/cc49WQNc.s:204    .text:000000000000011c .L0 
     /tmp/cc49WQNc.s:208    .text:0000000000000120 .L0 
     /tmp/cc49WQNc.s:210    .text:0000000000000120 .L0 
     /tmp/cc49WQNc.s:211    .text:0000000000000120 .L0 
     /tmp/cc49WQNc.s:215    .text:0000000000000130 .L0 
     /tmp/cc49WQNc.s:221    .text:0000000000000130 _ZN3CCB5yieldEv
     /tmp/cc49WQNc.s:224    .text:0000000000000130 .L0 
     /tmp/cc49WQNc.s:225    .text:0000000000000130 .L0 
     /tmp/cc49WQNc.s:226    .text:0000000000000134 .L0 
     /tmp/cc49WQNc.s:229    .text:000000000000013c .L0 
     /tmp/cc49WQNc.s:230    .text:000000000000013c .L0 
     /tmp/cc49WQNc.s:232    .text:0000000000000140 .L0 
     /tmp/cc49WQNc.s:234    .text:0000000000000140 .L0 
     /tmp/cc49WQNc.s:235    .text:0000000000000140 .L0 
     /tmp/cc49WQNc.s:238    .text:0000000000000148 .L0 
     /tmp/cc49WQNc.s:239    .text:0000000000000148 .L0 
     /tmp/cc49WQNc.s:242    .text:0000000000000150 .L0 
     /tmp/cc49WQNc.s:243    .text:0000000000000150 .L0 
     /tmp/cc49WQNc.s:246    .text:0000000000000158 .L0 
     /tmp/cc49WQNc.s:247    .text:000000000000015c .L0 
     /tmp/cc49WQNc.s:249    .text:0000000000000160 .L0 
     /tmp/cc49WQNc.s:250    .text:0000000000000160 .L0 
     /tmp/cc49WQNc.s:252    .text:0000000000000164 .L0 
     /tmp/cc49WQNc.s:254    .text:0000000000000168 .L0 
     /tmp/cc49WQNc.s:269    .text:0000000000000168 .L0 
     /tmp/cc49WQNc.s:167    .text:00000000000000dc .L0 
     /tmp/cc49WQNc.s:186    .text:00000000000000f4 .L0 
     /tmp/cc49WQNc.s:56     .text:0000000000000044 .L7
     /tmp/cc49WQNc.s:59     .text:0000000000000048 .L2
     /tmp/cc49WQNc.s:86     .text:0000000000000080 .L8
     /tmp/cc49WQNc.s:90     .text:0000000000000088 .L9
     /tmp/cc49WQNc.s:108    .text:00000000000000ac .L1
     /tmp/cc49WQNc.s:65     .text:0000000000000054 .L3
     /tmp/cc49WQNc.s:73     .text:0000000000000064 .L4
     /tmp/cc49WQNc.s:207    .text:0000000000000120 .L15
     /tmp/cc49WQNc.s:180    .text:00000000000000ec .L13
     /tmp/cc49WQNc.s:37     .text:0000000000000020 .LEHB0
     /tmp/cc49WQNc.s:13     .text:0000000000000000 .LFB19
     /tmp/cc49WQNc.s:40     .text:0000000000000028 .LEHE0
     /tmp/cc49WQNc.s:52     .text:0000000000000038 .LEHB1
     /tmp/cc49WQNc.s:84     .text:000000000000007c .LEHE1
     /tmp/cc49WQNc.s:94     .text:0000000000000090 .L10
     /tmp/cc49WQNc.s:104    .text:00000000000000a4 .LEHB2
     /tmp/cc49WQNc.s:107    .text:00000000000000ac .LEHE2
     /tmp/cc49WQNc.s:981    .debug_abbrev:0000000000000000 .Ldebug_abbrev0
     /tmp/cc49WQNc.s:1906   .debug_str:0000000000000053 .LASF70
     /tmp/cc49WQNc.s:2034   .debug_str:00000000000004b6 .LASF71
     /tmp/cc49WQNc.s:2070   .debug_str:00000000000005b3 .LASF72
     /tmp/cc49WQNc.s:8      .text:0000000000000000 .Ltext0
     /tmp/cc49WQNc.s:265    .text:0000000000000168 .Letext0
GAS LISTING /tmp/cc49WQNc.s 			page 10


     /tmp/cc49WQNc.s:1892   .debug_line:0000000000000000 .Ldebug_line0
     /tmp/cc49WQNc.s:1996   .debug_str:0000000000000392 .LASF0
     /tmp/cc49WQNc.s:2008   .debug_str:00000000000003e3 .LASF1
     /tmp/cc49WQNc.s:1986   .debug_str:0000000000000350 .LASF2
     /tmp/cc49WQNc.s:1964   .debug_str:00000000000002ba .LASF4
     /tmp/cc49WQNc.s:2036   .debug_str:00000000000004c2 .LASF3
     /tmp/cc49WQNc.s:1908   .debug_str:0000000000000117 .LASF5
     /tmp/cc49WQNc.s:2010   .debug_str:00000000000003f6 .LASF6
     /tmp/cc49WQNc.s:1994   .debug_str:000000000000037f .LASF7
     /tmp/cc49WQNc.s:2054   .debug_str:0000000000000548 .LASF8
     /tmp/cc49WQNc.s:1952   .debug_str:000000000000024f .LASF9
     /tmp/cc49WQNc.s:2018   .debug_str:000000000000043d .LASF10
     /tmp/cc49WQNc.s:2052   .debug_str:0000000000000539 .LASF11
     /tmp/cc49WQNc.s:1910   .debug_str:000000000000011e .LASF12
     /tmp/cc49WQNc.s:1898   .debug_str:0000000000000022 .LASF13
     /tmp/cc49WQNc.s:1918   .debug_str:000000000000015c .LASF14
     /tmp/cc49WQNc.s:2028   .debug_str:0000000000000482 .LASF15
     /tmp/cc49WQNc.s:1924   .debug_str:000000000000018e .LASF16
     /tmp/cc49WQNc.s:2014   .debug_str:0000000000000414 .LASF17
     /tmp/cc49WQNc.s:2056   .debug_str:0000000000000558 .LASF73
     /tmp/cc49WQNc.s:1960   .debug_str:0000000000000296 .LASF74
     /tmp/cc49WQNc.s:2004   .debug_str:00000000000003c5 .LASF75
     /tmp/cc49WQNc.s:1902   .debug_str:000000000000003b .LASF76
     /tmp/cc49WQNc.s:1930   .debug_str:00000000000001bd .LASF77
     /tmp/cc49WQNc.s:2058   .debug_str:000000000000056c .LASF18
     /tmp/cc49WQNc.s:2016   .debug_str:000000000000041e .LASF20
     /tmp/cc49WQNc.s:2022   .debug_str:000000000000045f .LASF78
     /tmp/cc49WQNc.s:2012   .debug_str:0000000000000409 .LASF79
     /tmp/cc49WQNc.s:2002   .debug_str:00000000000003ae .LASF80
     /tmp/cc49WQNc.s:1988   .debug_str:000000000000035e .LASF19
     /tmp/cc49WQNc.s:2026   .debug_str:000000000000046b .LASF21
     /tmp/cc49WQNc.s:2030   .debug_str:0000000000000498 .LASF31
     /tmp/cc49WQNc.s:1914   .debug_str:0000000000000142 .LASF33
     /tmp/cc49WQNc.s:1928   .debug_str:00000000000001b8 .LASF22
     /tmp/cc49WQNc.s:2066   .debug_str:000000000000059f .LASF23
     /tmp/cc49WQNc.s:1938   .debug_str:00000000000001fe .LASF81
     /tmp/cc49WQNc.s:1962   .debug_str:00000000000002aa .LASF82
     /tmp/cc49WQNc.s:1968   .debug_str:00000000000002ca .LASF24
     /tmp/cc49WQNc.s:2000   .debug_str:00000000000003a8 .LASF25
     /tmp/cc49WQNc.s:1972   .debug_str:00000000000002da .LASF26
     /tmp/cc49WQNc.s:1966   .debug_str:00000000000002c1 .LASF27
     /tmp/cc49WQNc.s:1998   .debug_str:000000000000039f .LASF83
     /tmp/cc49WQNc.s:2038   .debug_str:00000000000004d4 .LASF84
     /tmp/cc49WQNc.s:1920   .debug_str:0000000000000168 .LASF28
     /tmp/cc49WQNc.s:1974   .debug_str:00000000000002e2 .LASF85
     /tmp/cc49WQNc.s:1976   .debug_str:000000000000030a .LASF86
     /tmp/cc49WQNc.s:1944   .debug_str:0000000000000222 .LASF29
     /tmp/cc49WQNc.s:2006   .debug_str:00000000000003dd .LASF30
     /tmp/cc49WQNc.s:1904   .debug_str:0000000000000045 .LASF32
     /tmp/cc49WQNc.s:1936   .debug_str:00000000000001e3 .LASF34
     /tmp/cc49WQNc.s:2048   .debug_str:0000000000000519 .LASF35
     /tmp/cc49WQNc.s:1896   .debug_str:0000000000000008 .LASF36
     /tmp/cc49WQNc.s:1900   .debug_str:0000000000000032 .LASF37
     /tmp/cc49WQNc.s:2046   .debug_str:0000000000000504 .LASF40
     /tmp/cc49WQNc.s:1934   .debug_str:00000000000001da .LASF38
     /tmp/cc49WQNc.s:1932   .debug_str:00000000000001c5 .LASF43
     /tmp/cc49WQNc.s:2040   .debug_str:00000000000004e7 .LASF39
GAS LISTING /tmp/cc49WQNc.s 			page 11


     /tmp/cc49WQNc.s:2020   .debug_str:000000000000044c .LASF41
     /tmp/cc49WQNc.s:2024   .debug_str:0000000000000464 .LASF42
     /tmp/cc49WQNc.s:2050   .debug_str:0000000000000526 .LASF44
     /tmp/cc49WQNc.s:1948   .debug_str:0000000000000237 .LASF45
     /tmp/cc49WQNc.s:1926   .debug_str:00000000000001a4 .LASF46
     /tmp/cc49WQNc.s:1894   .debug_str:0000000000000000 .LASF47
     /tmp/cc49WQNc.s:1956   .debug_str:0000000000000273 .LASF48
     /tmp/cc49WQNc.s:1940   .debug_str:0000000000000206 .LASF49
     /tmp/cc49WQNc.s:1912   .debug_str:000000000000012e .LASF50
     /tmp/cc49WQNc.s:2068   .debug_str:00000000000005ab .LASF51
     /tmp/cc49WQNc.s:1942   .debug_str:000000000000020e .LASF52
     /tmp/cc49WQNc.s:1992   .debug_str:0000000000000374 .LASF53
     /tmp/cc49WQNc.s:2032   .debug_str:000000000000049e .LASF54
     /tmp/cc49WQNc.s:1970   .debug_str:00000000000002cf .LASF55
     /tmp/cc49WQNc.s:1978   .debug_str:0000000000000315 .LASF56
     /tmp/cc49WQNc.s:1916   .debug_str:0000000000000152 .LASF57
     /tmp/cc49WQNc.s:1982   .debug_str:0000000000000333 .LASF58
     /tmp/cc49WQNc.s:1990   .debug_str:000000000000036a .LASF59
     /tmp/cc49WQNc.s:1954   .debug_str:000000000000025d .LASF60
     /tmp/cc49WQNc.s:2060   .debug_str:000000000000057c .LASF87
     /tmp/cc49WQNc.s:152    .text:00000000000000c8 .LFB21
     /tmp/cc49WQNc.s:216    .text:0000000000000130 .LFE21
     /tmp/cc49WQNc.s:1796   .debug_loc:0000000000000000 .LLST3
     /tmp/cc49WQNc.s:170    .text:00000000000000e4 .LBB9
     /tmp/cc49WQNc.s:177    .text:00000000000000e8 .LBE9
     /tmp/cc49WQNc.s:1807   .debug_loc:0000000000000036 .LLST4
     /tmp/cc49WQNc.s:184    .text:00000000000000f4 .LVL13
     /tmp/cc49WQNc.s:192    .text:000000000000010c .LVL14
     /tmp/cc49WQNc.s:213    .text:000000000000012c .LVL17
     /tmp/cc49WQNc.s:222    .text:0000000000000130 .LFB20
     /tmp/cc49WQNc.s:255    .text:0000000000000168 .LFE20
     /tmp/cc49WQNc.s:236    .text:0000000000000148 .LVL18
     /tmp/cc49WQNc.s:240    .text:0000000000000150 .LVL19
     /tmp/cc49WQNc.s:244    .text:0000000000000158 .LVL20
     /tmp/cc49WQNc.s:126    .text:00000000000000c8 .LFE19
     /tmp/cc49WQNc.s:1814   .debug_loc:0000000000000059 .LLST0
     /tmp/cc49WQNc.s:43     .text:000000000000002c .LBB7
     /tmp/cc49WQNc.s:98     .text:0000000000000094 .LBE7
     /tmp/cc49WQNc.s:1843   .debug_loc:00000000000000ce .LLST1
     /tmp/cc49WQNc.s:1868   .debug_loc:0000000000000130 .LLST2
     /tmp/cc49WQNc.s:54     .text:0000000000000040 .LVL4
     /tmp/cc49WQNc.s:83     .text:000000000000007c .LVL5
     /tmp/cc49WQNc.s:39     .text:0000000000000028 .LVL2
     /tmp/cc49WQNc.s:102    .text:00000000000000a0 .LVL7
     /tmp/cc49WQNc.s:106    .text:00000000000000ac .LVL8
     /tmp/cc49WQNc.s:2064   .debug_str:000000000000059a .LASF61
     /tmp/cc49WQNc.s:1946   .debug_str:0000000000000227 .LASF88
     /tmp/cc49WQNc.s:2044   .debug_str:00000000000004fe .LASF62
     /tmp/cc49WQNc.s:1950   .debug_str:000000000000023f .LASF64
     /tmp/cc49WQNc.s:1980   .debug_str:000000000000032d .LASF63
     /tmp/cc49WQNc.s:2062   .debug_str:000000000000058d .LASF65
     /tmp/cc49WQNc.s:1984   .debug_str:0000000000000349 .LASF66
     /tmp/cc49WQNc.s:2042   .debug_str:00000000000004ee .LASF67
     /tmp/cc49WQNc.s:1958   .debug_str:0000000000000287 .LASF68
     /tmp/cc49WQNc.s:1922   .debug_str:0000000000000176 .LASF69
     /tmp/cc49WQNc.s:168    .text:00000000000000e4 .LVL11
     /tmp/cc49WQNc.s:202    .text:0000000000000118 .LVL15
GAS LISTING /tmp/cc49WQNc.s 			page 12


     /tmp/cc49WQNc.s:206    .text:0000000000000120 .LVL16
     /tmp/cc49WQNc.s:175    .text:00000000000000e8 .LVL12
     /tmp/cc49WQNc.s:19     .text:0000000000000000 .LVL0
     /tmp/cc49WQNc.s:36     .text:0000000000000020 .LVL1
     /tmp/cc49WQNc.s:96     .text:0000000000000094 .LVL6
     /tmp/cc49WQNc.s:121    .text:00000000000000c0 .LVL10
     /tmp/cc49WQNc.s:42     .text:000000000000002c .LVL3
     /tmp/cc49WQNc.s:118    .text:00000000000000bc .LVL9
     /tmp/cc49WQNc.s:270    .debug_info:0000000000000000 .Ldebug_info0
     /tmp/cc49WQNc.s:129    .gcc_except_table:0000000000000000 .LLSDA19

UNDEFINED SYMBOLS
_Znwm
_Znam
_ZN9Scheduler3putEP3CCB
_ZdlPv
_Unwind_Resume
__gxx_personality_v0
_ZN9Scheduler3getEv
_ZN3CCB13contextSwitchEPNS_7ContextES1_
_ZN5Riscv13pushRegistersEv
_ZN5Riscv12popRegistersEv
