GAS LISTING /tmp/cc49WQNc.s 			page 1


   1              		.file	"ccb.cpp"
   2              		.option nopic
   3              		.option norelax
   4              		.attribute arch, "rv64i2p0_m2p0_a2p0"
   5              		.attribute unaligned_access, 0
   6              		.attribute stack_align, 16
   7              		.text
   8              	.Ltext0:
   9              		.align	2
  10              		.globl	_ZN3CCB15createCoroutineEPFvvE
  12              	_ZN3CCB15createCoroutineEPFvvE:
  13              	.LFB19:
  14              		.file 1 "src/ccb.cpp"
   1:src/ccb.cpp   **** #include "../h/ccb.hpp"
   2:src/ccb.cpp   **** #include "../h/riscv.hpp"
   3:src/ccb.cpp   **** #include "../h/scheduler.hpp"
   4:src/ccb.cpp   **** 
   5:src/ccb.cpp   **** CCB *CCB::running = nullptr;
   6:src/ccb.cpp   **** 
   7:src/ccb.cpp   **** CCB *CCB::createCoroutine(Body body) { return new CCB(body); }
  15              		.loc 1 7 38
  16              		.cfi_startproc
  17              		.cfi_personality 0x9b,DW.ref.__gxx_personality_v0
  18              		.cfi_lsda 0x1b,.LLSDA19
  19              	.LVL0:
  20 0000 130101FE 		addi	sp,sp,-32
  21              		.cfi_def_cfa_offset 32
  22 0004 233C1100 		sd	ra,24(sp)
  23 0008 23388100 		sd	s0,16(sp)
  24 000c 23349100 		sd	s1,8(sp)
  25 0010 23302101 		sd	s2,0(sp)
  26              		.cfi_offset 1, -8
  27              		.cfi_offset 8, -16
  28              		.cfi_offset 9, -24
  29              		.cfi_offset 18, -32
  30 0014 13040102 		addi	s0,sp,32
  31              		.cfi_def_cfa 8, 0
  32 0018 13090500 		mv	s2,a0
  33              		.loc 1 7 40
  34              		.loc 1 7 59 is_stmt 0
  35 001c 13058002 		li	a0,40
  36              	.LVL1:
  37              	.LEHB0:
  38 0020 97000000 		call	_Znwm
  38      E7800000 
  39              	.LVL2:
  40              	.LEHE0:
  41 0028 93040500 		mv	s1,a0
  42              	.LVL3:
  43              	.LBB7:
  44              	.LBB8:
  45              		.file 2 "src/../h/ccb.hpp"
   1:src/../h/ccb.hpp **** #ifndef cbb_hpp
   2:src/../h/ccb.hpp **** #define cbb_hpp
   3:src/../h/ccb.hpp **** #include "../lib/hw.h"
   4:src/../h/ccb.hpp **** #include "scheduler.hpp"
   5:src/../h/ccb.hpp **** // Vezbe 7
GAS LISTING /tmp/cc49WQNc.s 			page 2


   6:src/../h/ccb.hpp **** 
   7:src/../h/ccb.hpp **** class CCB {
   8:src/../h/ccb.hpp **** public:
   9:src/../h/ccb.hpp ****   using Body = void (*)();
  10:src/../h/ccb.hpp ****   static CCB *createCoroutine(Body body);
  11:src/../h/ccb.hpp ****   bool isFinished() const { return finished; }
  12:src/../h/ccb.hpp ****   void setFinished(bool f) { CCB::finished = f; }
  13:src/../h/ccb.hpp ****   static void yield();
  14:src/../h/ccb.hpp ****   ~CCB() { delete[] stack; }
  15:src/../h/ccb.hpp ****   static CCB *running;
  16:src/../h/ccb.hpp **** 
  17:src/../h/ccb.hpp **** private:
  18:src/../h/ccb.hpp ****   CCB(Body body)
  19:src/../h/ccb.hpp ****       : body(body), stack(body != nullptr ? new uint64[STACK_SIZE] : nullptr),
  20:src/../h/ccb.hpp ****         context({body != nullptr ? (uint64)body : 0,
  21:src/../h/ccb.hpp ****                  stack != nullptr ? (uint64)&stack[STACK_SIZE] : 0}),
  22:src/../h/ccb.hpp ****         finished(false) {
  46              		.loc 2 22 23
  47 002c 23302501 		sd	s2,0(a0)
  19:src/../h/ccb.hpp ****         context({body != nullptr ? (uint64)body : 0,
  48              		.loc 2 19 43
  49 0030 630A0900 		beqz	s2,.L7
  19:src/../h/ccb.hpp ****         context({body != nullptr ? (uint64)body : 0,
  50              		.loc 2 19 66
  51 0034 37250000 		li	a0,8192
  52              	.LEHB1:
  53 0038 97000000 		call	_Znam
  53      E7800000 
  54              	.LVL4:
  55 0040 6F008000 		j	.L2
  56              	.L7:
  19:src/../h/ccb.hpp ****         context({body != nullptr ? (uint64)body : 0,
  57              		.loc 2 19 43
  58 0044 13050000 		li	a0,0
  59              	.L2:
  60              		.loc 2 22 23
  61 0048 23B4A400 		sd	a0,8(s1)
  20:src/../h/ccb.hpp ****                  stack != nullptr ? (uint64)&stack[STACK_SIZE] : 0}),
  62              		.loc 2 20 34
  63 004c 630A0902 		beqz	s2,.L8
  64 0050 93070900 		mv	a5,s2
  65              	.L3:
  66              		.loc 2 22 23
  67 0054 23B8F400 		sd	a5,16(s1)
  21:src/../h/ccb.hpp ****         finished(false) {
  68              		.loc 2 21 35
  69 0058 63080502 		beqz	a0,.L9
  21:src/../h/ccb.hpp ****         finished(false) {
  70              		.loc 2 21 45
  71 005c B7270000 		li	a5,8192
  72 0060 3305F500 		add	a0,a0,a5
  73              	.L4:
  74              		.loc 2 22 23
  75 0064 23BCA400 		sd	a0,24(s1)
  76 0068 23800402 		sb	zero,32(s1)
  23:src/../h/ccb.hpp ****     if (body != nullptr) {
  77              		.loc 2 23 5 is_stmt 1
GAS LISTING /tmp/cc49WQNc.s 			page 3


  78 006c 63000904 		beqz	s2,.L1
  24:src/../h/ccb.hpp ****       Scheduler::put(this);
  79              		.loc 2 24 7
  80              		.loc 2 24 21 is_stmt 0
  81 0070 13850400 		mv	a0,s1
  82 0074 97000000 		call	_ZN9Scheduler3putEP3CCB
  82      E7800000 
  83              	.LVL5:
  84              	.LEHE1:
  85 007c 6F000003 		j	.L1
  86              	.L8:
  20:src/../h/ccb.hpp ****                  stack != nullptr ? (uint64)&stack[STACK_SIZE] : 0}),
  87              		.loc 2 20 34
  88 0080 93070000 		li	a5,0
  89 0084 6FF01FFD 		j	.L3
  90              	.L9:
  21:src/../h/ccb.hpp ****         finished(false) {
  91              		.loc 2 21 35
  92 0088 13050000 		li	a0,0
  93 008c 6FF09FFD 		j	.L4
  94              	.L10:
  95 0090 13090500 		mv	s2,a0
  96              	.LVL6:
  97              	.LBE8:
  98              	.LBE7:
  99              		.loc 1 7 59
 100 0094 13850400 		mv	a0,s1
 101 0098 97000000 		call	_ZdlPv
 101      E7800000 
 102              	.LVL7:
 103 00a0 13050900 		mv	a0,s2
 104              	.LEHB2:
 105 00a4 97000000 		call	_Unwind_Resume
 105      E7800000 
 106              	.LVL8:
 107              	.LEHE2:
 108              	.L1:
 109              		.loc 1 7 62
 110 00ac 13850400 		mv	a0,s1
 111 00b0 83308101 		ld	ra,24(sp)
 112              		.cfi_restore 1
 113 00b4 03340101 		ld	s0,16(sp)
 114              		.cfi_restore 8
 115              		.cfi_def_cfa 2, 32
 116 00b8 83348100 		ld	s1,8(sp)
 117              		.cfi_restore 9
 118              	.LVL9:
 119 00bc 03390100 		ld	s2,0(sp)
 120              		.cfi_restore 18
 121              	.LVL10:
 122 00c0 13010102 		addi	sp,sp,32
 123              		.cfi_def_cfa_offset 0
 124 00c4 67800000 		jr	ra
 125              		.cfi_endproc
 126              	.LFE19:
 127              		.globl	__gxx_personality_v0
 128              		.section	.gcc_except_table,"aw",@progbits
GAS LISTING /tmp/cc49WQNc.s 			page 4


 129              	.LLSDA19:
 130 0000 FF       		.byte	0xff
 131 0001 FF       		.byte	0xff
 132 0002 03       		.byte	0x3
 133 0003 27       		.byte	0x27
 134 0004 00000000 		.4byte	.LEHB0-.LFB19
 135 0008 00000000 		.4byte	.LEHE0-.LEHB0
 136 000c 00000000 		.4byte	0
 137 0010 00       		.byte	0
 138 0011 00000000 		.4byte	.LEHB1-.LFB19
 139 0015 00000000 		.4byte	.LEHE1-.LEHB1
 140 0019 00000000 		.4byte	.L10-.LFB19
 141 001d 00       		.byte	0
 142 001e 00000000 		.4byte	.LEHB2-.LFB19
 143 0022 00000000 		.4byte	.LEHE2-.LEHB2
 144 0026 00000000 		.4byte	0
 145 002a 00       		.byte	0
 146              		.text
 148              		.align	2
 149              		.globl	_ZN3CCB8dispatchEv
 151              	_ZN3CCB8dispatchEv:
 152              	.LFB21:
   8:src/ccb.cpp   **** 
   9:src/ccb.cpp   **** void CCB::yield() {
  10:src/ccb.cpp   ****   Riscv::pushRegisters();
  11:src/ccb.cpp   ****   CCB::dispatch();
  12:src/ccb.cpp   ****   Riscv::popRegisters();
  13:src/ccb.cpp   **** };
  14:src/ccb.cpp   **** 
  15:src/ccb.cpp   **** void CCB::dispatch() {
 153              		.loc 1 15 22 is_stmt 1
 154              		.cfi_startproc
 155 00c8 130101FE 		addi	sp,sp,-32
 156              		.cfi_def_cfa_offset 32
 157 00cc 233C1100 		sd	ra,24(sp)
 158 00d0 23388100 		sd	s0,16(sp)
 159 00d4 23349100 		sd	s1,8(sp)
 160              		.cfi_offset 1, -8
 161              		.cfi_offset 8, -16
 162              		.cfi_offset 9, -24
 163 00d8 13040102 		addi	s0,sp,32
 164              		.cfi_def_cfa 8, 0
  16:src/ccb.cpp   ****   CCB *old = running;
 165              		.loc 1 16 3
 166              		.loc 1 16 8 is_stmt 0
 167 00dc 97040000 		ld	s1,_ZN3CCB7runningE
 167      83B40400 
 168              	.LVL11:
  17:src/ccb.cpp   ****   if (!old->isFinished()) {
 169              		.loc 1 17 3 is_stmt 1
 170              	.LBB9:
 171              	.LBB10:
  11:src/../h/ccb.hpp ****   void setFinished(bool f) { CCB::finished = f; }
 172              		.loc 2 11 29
  11:src/../h/ccb.hpp ****   void setFinished(bool f) { CCB::finished = f; }
 173              		.loc 2 11 36 is_stmt 0
 174 00e4 83C70402 		lbu	a5,32(s1)
GAS LISTING /tmp/cc49WQNc.s 			page 5


 175              	.LVL12:
 176              	.LBE10:
 177              	.LBE9:
 178              		.loc 1 17 3
 179 00e8 638C0702 		beqz	a5,.L15
 180              	.L13:
  18:src/ccb.cpp   ****     Scheduler::put(old);
  19:src/ccb.cpp   ****   }
  20:src/ccb.cpp   ****   running = Scheduler::get();
 181              		.loc 1 20 3 is_stmt 1
 182              		.loc 1 20 27 is_stmt 0
 183 00ec 97000000 		call	_ZN9Scheduler3getEv
 183      E7800000 
 184              	.LVL13:
 185              		.loc 1 20 11
 186 00f4 97070000 		sd	a0,_ZN3CCB7runningE,a5
 186      23B0A700 
  21:src/ccb.cpp   **** 
  22:src/ccb.cpp   ****   CCB::contextSwitch(&old->context, &running->context);
 187              		.loc 1 22 3 is_stmt 1
 188              		.loc 1 22 21 is_stmt 0
 189 00fc 93050501 		addi	a1,a0,16
 190 0100 13850401 		addi	a0,s1,16
 191 0104 97000000 		call	_ZN3CCB13contextSwitchEPNS_7ContextES1_
 191      E7800000 
 192              	.LVL14:
  23:src/ccb.cpp   **** }...
 193              		.loc 1 23 1
 194 010c 83308101 		ld	ra,24(sp)
 195              		.cfi_remember_state
 196              		.cfi_restore 1
 197 0110 03340101 		ld	s0,16(sp)
 198              		.cfi_restore 8
 199              		.cfi_def_cfa 2, 32
 200 0114 83348100 		ld	s1,8(sp)
 201              		.cfi_restore 9
 202              	.LVL15:
 203 0118 13010102 		addi	sp,sp,32
 204              		.cfi_def_cfa_offset 0
 205 011c 67800000 		jr	ra
 206              	.LVL16:
 207              	.L15:
 208              		.cfi_restore_state
  18:src/ccb.cpp   ****     Scheduler::put(old);
 209              		.loc 1 18 5 is_stmt 1
  18:src/ccb.cpp   ****     Scheduler::put(old);
 210              		.loc 1 18 19 is_stmt 0
 211 0120 13850400 		mv	a0,s1
 212 0124 97000000 		call	_ZN9Scheduler3putEP3CCB
 212      E7800000 
 213              	.LVL17:
 214 012c 6FF01FFC 		j	.L13
 215              		.cfi_endproc
 216              	.LFE21:
 218              		.align	2
 219              		.globl	_ZN3CCB5yieldEv
 221              	_ZN3CCB5yieldEv:
GAS LISTING /tmp/cc49WQNc.s 			page 6


 222              	.LFB20:
   9:src/ccb.cpp   **** void CCB::yield() {
 223              		.loc 1 9 19 is_stmt 1
 224              		.cfi_startproc
 225 0130 130101FF 		addi	sp,sp,-16
 226              		.cfi_def_cfa_offset 16
 227 0134 23341100 		sd	ra,8(sp)
 228 0138 23308100 		sd	s0,0(sp)
 229              		.cfi_offset 1, -8
 230              		.cfi_offset 8, -16
 231 013c 13040101 		addi	s0,sp,16
 232              		.cfi_def_cfa 8, 0
  10:src/ccb.cpp   ****   Riscv::pushRegisters();
 233              		.loc 1 10 3
  10:src/ccb.cpp   ****   Riscv::pushRegisters();
 234              		.loc 1 10 23 is_stmt 0
 235 0140 97000000 		call	_ZN5Riscv13pushRegistersEv
 235      E7800000 
 236              	.LVL18:
  11:src/ccb.cpp   ****   CCB::dispatch();
 237              		.loc 1 11 3 is_stmt 1
  11:src/ccb.cpp   ****   CCB::dispatch();
 238              		.loc 1 11 16 is_stmt 0
 239 0148 97000000 		call	_ZN3CCB8dispatchEv
 239      E7800000 
 240              	.LVL19:
  12:src/ccb.cpp   ****   Riscv::popRegisters();
 241              		.loc 1 12 3 is_stmt 1
  12:src/ccb.cpp   ****   Riscv::popRegisters();
 242              		.loc 1 12 22 is_stmt 0
 243 0150 97000000 		call	_ZN5Riscv12popRegistersEv
 243      E7800000 
 244              	.LVL20:
  13:src/ccb.cpp   **** };
 245              		.loc 1 13 1
 246 0158 83308100 		ld	ra,8(sp)
 247              		.cfi_restore 1
 248 015c 03340100 		ld	s0,0(sp)
 249              		.cfi_restore 8
 250              		.cfi_def_cfa 2, 16
 251 0160 13010101 		addi	sp,sp,16
 252              		.cfi_def_cfa_offset 0
 253 0164 67800000 		jr	ra
 254              		.cfi_endproc
 255              	.LFE20:
 257              		.globl	_ZN3CCB7runningE
 258              		.section	.sbss,"aw",@nobits
 259              		.align	3
 262              	_ZN3CCB7runningE:
 263 0000 00000000 		.zero	8
 263      00000000 
 264              		.text
 265              	.Letext0:
 266              		.file 3 "src/../h/../lib/hw.h"
 267              		.file 4 "src/../h/scheduler.hpp"
 268              		.file 5 "src/../h/riscv.hpp"
 2075              		.align	3
GAS LISTING /tmp/cc49WQNc.s 			page 7


 2078              	DW.ref.__gxx_personality_v0:
 2079 0000 00000000 		.dword	__gxx_personality_v0
 2079      00000000 
 2080              		.ident	"GCC: () 9.3.0"
GAS LISTING /tmp/cc49WQNc.s 			page 8

