GAS LISTING /tmp/ccYzH05d.s 			page 1


   1              		.file	"main.cpp"
   2              		.option nopic
   3              		.option norelax
   4              		.attribute arch, "rv64i2p0_m2p0_a2p0"
   5              		.attribute unaligned_access, 0
   6              		.attribute stack_align, 16
   7              		.text
   8              	.Ltext0:
   9              		.section	.rodata.str1.8,"aMS",@progbits,1
  10              		.align	3
  11              	.LC0:
  12 0000 436F726F 		.string	"CoroutineA created\n"
  12      7574696E 
  12      65412063 
  12      72656174 
  12      65640A00 
  13 0014 00000000 		.align	3
  14              	.LC1:
  15 0018 436F726F 		.string	"CoroutineB created\n"
  15      7574696E 
  15      65422063 
  15      72656174 
  15      65640A00 
  16 002c 00000000 		.align	3
  17              	.LC2:
  18 0030 46696E69 		.string	"Finished\n"
  18      73686564 
  18      0A00
  19              		.text
  20              		.align	2
  21              		.globl	main
  23              	main:
  24              	.LFB16:
  25              		.file 1 "src/main.cpp"
   1:src/main.cpp  **** #include "../h/ccb.hpp"
   2:src/main.cpp  **** #include "../h/print.hpp"
   3:src/main.cpp  **** #include "../h/workers.hpp"
   4:src/main.cpp  **** int main() {
  26              		.loc 1 4 12
  27              		.cfi_startproc
  28 0000 130101FC 		addi	sp,sp,-64
  29              		.cfi_def_cfa_offset 64
  30 0004 233C1102 		sd	ra,56(sp)
  31 0008 23388102 		sd	s0,48(sp)
  32 000c 23349102 		sd	s1,40(sp)
  33 0010 23302103 		sd	s2,32(sp)
  34              		.cfi_offset 1, -8
  35              		.cfi_offset 8, -16
  36              		.cfi_offset 9, -24
  37              		.cfi_offset 18, -32
  38 0014 13040104 		addi	s0,sp,64
  39              		.cfi_def_cfa 8, 0
   5:src/main.cpp  **** 
   6:src/main.cpp  ****   CCB *coroutines[3];
  40              		.loc 1 6 3
   7:src/main.cpp  ****   coroutines[0] = CCB::createCoroutine(nullptr);
  41              		.loc 1 7 3
GAS LISTING /tmp/ccYzH05d.s 			page 2


  42              		.loc 1 7 39 is_stmt 0
  43 0018 13050000 		li	a0,0
  44 001c 97000000 		call	_ZN3CCB15createCoroutineEPFvvE
  44      E7800000 
  45              	.LVL0:
  46              		.loc 1 7 17
  47 0024 2334A4FC 		sd	a0,-56(s0)
   8:src/main.cpp  ****   CCB::running = coroutines[0];
  48              		.loc 1 8 3 is_stmt 1
  49              		.loc 1 8 16 is_stmt 0
  50 0028 97070000 		sd	a0,_ZN3CCB7runningE,a5
  50      23B0A700 
   9:src/main.cpp  **** 
  10:src/main.cpp  ****   coroutines[1] = CCB::createCoroutine(workerBodyA);
  51              		.loc 1 10 3 is_stmt 1
  52              		.loc 1 10 39 is_stmt 0
  53 0030 17050000 		lla	a0,_Z11workerBodyAv
  53      13050500 
  54 0038 97000000 		call	_ZN3CCB15createCoroutineEPFvvE
  54      E7800000 
  55              	.LVL1:
  56              		.loc 1 10 17
  57 0040 2338A4FC 		sd	a0,-48(s0)
  11:src/main.cpp  ****   printString("CoroutineA created\n");
  58              		.loc 1 11 3 is_stmt 1
  59              		.loc 1 11 14 is_stmt 0
  60 0044 17050000 		lla	a0,.LC0
  60      13050500 
  61 004c 97000000 		call	_Z11printStringPKc
  61      E7800000 
  62              	.LVL2:
  12:src/main.cpp  ****   coroutines[2] = CCB::createCoroutine(workerBodyB);
  63              		.loc 1 12 3 is_stmt 1
  64              		.loc 1 12 39 is_stmt 0
  65 0054 17050000 		lla	a0,_Z11workerBodyBv
  65      13050500 
  66 005c 97000000 		call	_ZN3CCB15createCoroutineEPFvvE
  66      E7800000 
  67              	.LVL3:
  68              		.loc 1 12 17
  69 0064 233CA4FC 		sd	a0,-40(s0)
  13:src/main.cpp  ****   printString("CoroutineB created\n");
  70              		.loc 1 13 3 is_stmt 1
  71              		.loc 1 13 14 is_stmt 0
  72 0068 17050000 		lla	a0,.LC1
  72      13050500 
  73 0070 97000000 		call	_Z11printStringPKc
  73      E7800000 
  74              	.LVL4:
  75 0078 6F00C000 		j	.L4
  76              	.L2:
  14:src/main.cpp  ****   while (!(coroutines[1]->isFinished() && coroutines[2]->isFinished())) {
  15:src/main.cpp  ****     CCB::yield();
  77              		.loc 1 15 5 is_stmt 1 discriminator 3
  78              		.loc 1 15 15 is_stmt 0 discriminator 3
  79 007c 97000000 		call	_ZN3CCB5yieldEv
  79      E7800000 
GAS LISTING /tmp/ccYzH05d.s 			page 3


  80              	.LVL5:
  81              	.L4:
  14:src/main.cpp  ****   while (!(coroutines[1]->isFinished() && coroutines[2]->isFinished())) {
  82              		.loc 1 14 3 is_stmt 1
  14:src/main.cpp  ****   while (!(coroutines[1]->isFinished() && coroutines[2]->isFinished())) {
  83              		.loc 1 14 10
  14:src/main.cpp  ****   while (!(coroutines[1]->isFinished() && coroutines[2]->isFinished())) {
  84              		.loc 1 14 24 is_stmt 0
  85 0084 833704FD 		ld	a5,-48(s0)
  86              	.LVL6:
  87              	.LBB10:
  88              	.LBB11:
  89              		.file 2 "src/../h/ccb.hpp"
   1:src/../h/ccb.hpp **** #ifndef cbb_hpp
   2:src/../h/ccb.hpp **** #define cbb_hpp
   3:src/../h/ccb.hpp **** #include "../lib/hw.h"
   4:src/../h/ccb.hpp **** #include "scheduler.hpp"
   5:src/../h/ccb.hpp **** // Vezbe 7
   6:src/../h/ccb.hpp **** 
   7:src/../h/ccb.hpp **** class CCB {
   8:src/../h/ccb.hpp **** public:
   9:src/../h/ccb.hpp ****   using Body = void (*)();
  10:src/../h/ccb.hpp ****   static CCB *createCoroutine(Body body);
  11:src/../h/ccb.hpp ****   bool isFinished() const { return finished; }
  90              		.loc 2 11 29 is_stmt 1
  91              		.loc 2 11 36 is_stmt 0
  92 0088 83C70702 		lbu	a5,32(a5)
  93              	.LVL7:
  94              	.LBE11:
  95              	.LBE10:
  14:src/main.cpp  ****   while (!(coroutines[1]->isFinished() && coroutines[2]->isFinished())) {
  96              		.loc 1 14 10
  97 008c E38807FE 		beqz	a5,.L2
  14:src/main.cpp  ****   while (!(coroutines[1]->isFinished() && coroutines[2]->isFinished())) {
  98              		.loc 1 14 55 discriminator 2
  99 0090 833784FD 		ld	a5,-40(s0)
 100              	.LVL8:
 101              	.LBB12:
 102              	.LBB13:
 103              		.loc 2 11 29 is_stmt 1 discriminator 2
 104              		.loc 2 11 36 is_stmt 0 discriminator 2
 105 0094 83C70702 		lbu	a5,32(a5)
 106              	.LVL9:
 107              	.LBE13:
 108              	.LBE12:
  14:src/main.cpp  ****   while (!(coroutines[1]->isFinished() && coroutines[2]->isFinished())) {
 109              		.loc 1 14 10 discriminator 2
 110 0098 E38207FE 		beqz	a5,.L2
 111 009c 930484FC 		addi	s1,s0,-56
 112 00a0 6F004001 		j	.L3
 113              	.LVL10:
 114              	.L7:
 115              	.LBB14:
  16:src/main.cpp  ****   }
  17:src/main.cpp  ****   for (auto &coroutine : coroutines) {
  18:src/main.cpp  ****     delete coroutine;
 116              		.loc 1 18 12
GAS LISTING /tmp/ccYzH05d.s 			page 4


 117 00a4 13050900 		mv	a0,s2
 118 00a8 97000000 		call	_ZdlPv
 118      E7800000 
 119              	.LVL11:
 120              	.L6:
  17:src/main.cpp  ****     delete coroutine;
 121              		.loc 1 17 3 is_stmt 1 discriminator 3
 122 00b0 93848400 		addi	s1,s1,8
 123              	.LVL12:
 124              	.L3:
  17:src/main.cpp  ****     delete coroutine;
 125              		.loc 1 17 26 discriminator 1
 126 00b4 930704FE 		addi	a5,s0,-32
 127 00b8 6380F402 		beq	s1,a5,.L5
 128              	.LVL13:
 129              		.loc 1 18 5 discriminator 2
 130              		.loc 1 18 12 is_stmt 0 discriminator 2
 131 00bc 03B90400 		ld	s2,0(s1)
 132              		.loc 1 18 21 discriminator 2
 133 00c0 E30809FE 		beqz	s2,.L6
 134              	.LVL14:
 135              	.LBB15:
 136              	.LBB16:
  12:src/../h/ccb.hpp ****   void setFinished(bool f) { CCB::finished = f; }
  13:src/../h/ccb.hpp ****   static void yield();
  14:src/../h/ccb.hpp ****   ~CCB() { delete[] stack; }
 137              		.loc 2 14 12 is_stmt 1
 138              		.loc 2 14 21 is_stmt 0
 139 00c4 03358900 		ld	a0,8(s2)
 140              		.loc 2 14 26
 141 00c8 E30E05FC 		beqz	a0,.L7
 142              		.loc 2 14 21
 143 00cc 97000000 		call	_ZdaPv
 143      E7800000 
 144              	.LVL15:
 145 00d4 6FF01FFD 		j	.L7
 146              	.LVL16:
 147              	.L5:
 148              	.LBE16:
 149              	.LBE15:
 150              	.LBE14:
  19:src/main.cpp  ****   }
  20:src/main.cpp  ****   printString("Finished\n");
 151              		.loc 1 20 3 is_stmt 1
 152              		.loc 1 20 14 is_stmt 0
 153 00d8 17050000 		lla	a0,.LC2
 153      13050500 
 154 00e0 97000000 		call	_Z11printStringPKc
 154      E7800000 
 155              	.LVL17:
  21:src/main.cpp  ****   return 0;
 156              		.loc 1 21 3 is_stmt 1
  22:src/main.cpp  **** }
 157              		.loc 1 22 1 is_stmt 0
 158 00e8 13050000 		li	a0,0
 159 00ec 83308103 		ld	ra,56(sp)
 160              		.cfi_restore 1
GAS LISTING /tmp/ccYzH05d.s 			page 5


 161 00f0 03340103 		ld	s0,48(sp)
 162              		.cfi_restore 8
 163              		.cfi_def_cfa 2, 64
 164 00f4 83348102 		ld	s1,40(sp)
 165              		.cfi_restore 9
 166              	.LVL18:
 167 00f8 03390102 		ld	s2,32(sp)
 168              		.cfi_restore 18
 169 00fc 13010104 		addi	sp,sp,64
 170              		.cfi_def_cfa_offset 0
 171 0100 67800000 		jr	ra
 172              		.cfi_endproc
 173              	.LFE16:
 175              	.Letext0:
 176              		.file 3 "src/../h/../lib/hw.h"
 177              		.file 4 "src/../h/print.hpp"
GAS LISTING /tmp/ccYzH05d.s 			page 6


DEFINED SYMBOLS
                            *ABS*:0000000000000000 main.cpp
     /tmp/ccYzH05d.s:23     .text:0000000000000000 main
     /tmp/ccYzH05d.s:27     .text:0000000000000000 .L0 
     /tmp/ccYzH05d.s:28     .text:0000000000000000 .L0 
     /tmp/ccYzH05d.s:29     .text:0000000000000004 .L0 
     /tmp/ccYzH05d.s:34     .text:0000000000000014 .L0 
     /tmp/ccYzH05d.s:35     .text:0000000000000014 .L0 
     /tmp/ccYzH05d.s:36     .text:0000000000000014 .L0 
     /tmp/ccYzH05d.s:37     .text:0000000000000014 .L0 
     /tmp/ccYzH05d.s:39     .text:0000000000000018 .L0 
     /tmp/ccYzH05d.s:41     .text:0000000000000018 .L0 
     /tmp/ccYzH05d.s:42     .text:0000000000000018 .L0 
     /tmp/ccYzH05d.s:43     .text:0000000000000018 .L0 
     /tmp/ccYzH05d.s:47     .text:0000000000000024 .L0 
     /tmp/ccYzH05d.s:49     .text:0000000000000028 .L0 
     /tmp/ccYzH05d.s:50     .text:0000000000000028 .L0 
     /tmp/ccYzH05d.s:52     .text:0000000000000030 .L0 
     /tmp/ccYzH05d.s:53     .text:0000000000000030 .L0 
     /tmp/ccYzH05d.s:57     .text:0000000000000040 .L0 
     /tmp/ccYzH05d.s:59     .text:0000000000000044 .L0 
     /tmp/ccYzH05d.s:60     .text:0000000000000044 .L0 
     /tmp/ccYzH05d.s:64     .text:0000000000000054 .L0 
     /tmp/ccYzH05d.s:65     .text:0000000000000054 .L0 
     /tmp/ccYzH05d.s:69     .text:0000000000000064 .L0 
     /tmp/ccYzH05d.s:71     .text:0000000000000068 .L0 
     /tmp/ccYzH05d.s:72     .text:0000000000000068 .L0 
     /tmp/ccYzH05d.s:78     .text:000000000000007c .L0 
     /tmp/ccYzH05d.s:79     .text:000000000000007c .L0 
     /tmp/ccYzH05d.s:83     .text:0000000000000084 .L0 
     /tmp/ccYzH05d.s:84     .text:0000000000000084 .L0 
     /tmp/ccYzH05d.s:85     .text:0000000000000084 .L0 
     /tmp/ccYzH05d.s:91     .text:0000000000000088 .L0 
     /tmp/ccYzH05d.s:92     .text:0000000000000088 .L0 
     /tmp/ccYzH05d.s:97     .text:000000000000008c .L0 
     /tmp/ccYzH05d.s:99     .text:0000000000000090 .L0 
     /tmp/ccYzH05d.s:104    .text:0000000000000094 .L0 
     /tmp/ccYzH05d.s:105    .text:0000000000000094 .L0 
     /tmp/ccYzH05d.s:110    .text:0000000000000098 .L0 
     /tmp/ccYzH05d.s:117    .text:00000000000000a4 .L0 
     /tmp/ccYzH05d.s:122    .text:00000000000000b0 .L0 
     /tmp/ccYzH05d.s:126    .text:00000000000000b4 .L0 
     /tmp/ccYzH05d.s:130    .text:00000000000000bc .L0 
     /tmp/ccYzH05d.s:131    .text:00000000000000bc .L0 
     /tmp/ccYzH05d.s:133    .text:00000000000000c0 .L0 
     /tmp/ccYzH05d.s:138    .text:00000000000000c4 .L0 
     /tmp/ccYzH05d.s:139    .text:00000000000000c4 .L0 
     /tmp/ccYzH05d.s:141    .text:00000000000000c8 .L0 
     /tmp/ccYzH05d.s:143    .text:00000000000000cc .L0 
     /tmp/ccYzH05d.s:152    .text:00000000000000d8 .L0 
     /tmp/ccYzH05d.s:153    .text:00000000000000d8 .L0 
     /tmp/ccYzH05d.s:157    .text:00000000000000e8 .L0 
     /tmp/ccYzH05d.s:158    .text:00000000000000e8 .L0 
     /tmp/ccYzH05d.s:160    .text:00000000000000f0 .L0 
     /tmp/ccYzH05d.s:162    .text:00000000000000f4 .L0 
     /tmp/ccYzH05d.s:163    .text:00000000000000f4 .L0 
     /tmp/ccYzH05d.s:165    .text:00000000000000f8 .L0 
GAS LISTING /tmp/ccYzH05d.s 			page 7


     /tmp/ccYzH05d.s:168    .text:00000000000000fc .L0 
     /tmp/ccYzH05d.s:170    .text:0000000000000100 .L0 
     /tmp/ccYzH05d.s:172    .text:0000000000000104 .L0 
     /tmp/ccYzH05d.s:178    .text:0000000000000104 .L0 
     /tmp/ccYzH05d.s:50     .text:0000000000000028 .L0 
     /tmp/ccYzH05d.s:53     .text:0000000000000030 .L0 
     /tmp/ccYzH05d.s:11     .rodata.str1.8:0000000000000000 .LC0
     /tmp/ccYzH05d.s:60     .text:0000000000000044 .L0 
     /tmp/ccYzH05d.s:65     .text:0000000000000054 .L0 
     /tmp/ccYzH05d.s:14     .rodata.str1.8:0000000000000018 .LC1
     /tmp/ccYzH05d.s:72     .text:0000000000000068 .L0 
     /tmp/ccYzH05d.s:17     .rodata.str1.8:0000000000000030 .LC2
     /tmp/ccYzH05d.s:153    .text:00000000000000d8 .L0 
     /tmp/ccYzH05d.s:81     .text:0000000000000084 .L4
     /tmp/ccYzH05d.s:76     .text:000000000000007c .L2
     /tmp/ccYzH05d.s:124    .text:00000000000000b4 .L3
     /tmp/ccYzH05d.s:147    .text:00000000000000d8 .L5
     /tmp/ccYzH05d.s:120    .text:00000000000000b0 .L6
     /tmp/ccYzH05d.s:114    .text:00000000000000a4 .L7
     /tmp/ccYzH05d.s:704    .debug_abbrev:0000000000000000 .Ldebug_abbrev0
     /tmp/ccYzH05d.s:1478   .debug_str:000000000000003a .LASF40
     /tmp/ccYzH05d.s:1538   .debug_str:000000000000026e .LASF41
     /tmp/ccYzH05d.s:1492   .debug_str:0000000000000136 .LASF42
     /tmp/ccYzH05d.s:8      .text:0000000000000000 .Ltext0
     /tmp/ccYzH05d.s:175    .text:0000000000000104 .Letext0
     /tmp/ccYzH05d.s:1466   .debug_line:0000000000000000 .Ldebug_line0
     /tmp/ccYzH05d.s:1540   .debug_str:000000000000027b .LASF0
     /tmp/ccYzH05d.s:1518   .debug_str:00000000000001fb .LASF1
     /tmp/ccYzH05d.s:1512   .debug_str:00000000000001d6 .LASF2
     /tmp/ccYzH05d.s:1484   .debug_str:0000000000000118 .LASF4
     /tmp/ccYzH05d.s:1516   .debug_str:00000000000001e9 .LASF3
     /tmp/ccYzH05d.s:1474   .debug_str:0000000000000028 .LASF5
     /tmp/ccYzH05d.s:1470   .debug_str:0000000000000009 .LASF6
     /tmp/ccYzH05d.s:1500   .debug_str:0000000000000176 .LASF7
     /tmp/ccYzH05d.s:1554   .debug_str:00000000000002dd .LASF8
     /tmp/ccYzH05d.s:1482   .debug_str:000000000000010a .LASF9
     /tmp/ccYzH05d.s:1584   .debug_str:00000000000003c1 .LASF10
     /tmp/ccYzH05d.s:1506   .debug_str:00000000000001a4 .LASF11
     /tmp/ccYzH05d.s:1572   .debug_str:0000000000000370 .LASF12
     /tmp/ccYzH05d.s:1560   .debug_str:000000000000030b .LASF13
     /tmp/ccYzH05d.s:1522   .debug_str:0000000000000217 .LASF14
     /tmp/ccYzH05d.s:1498   .debug_str:0000000000000160 .LASF15
     /tmp/ccYzH05d.s:1556   .debug_str:00000000000002ed .LASF16
     /tmp/ccYzH05d.s:1578   .debug_str:00000000000003a6 .LASF43
     /tmp/ccYzH05d.s:1502   .debug_str:0000000000000189 .LASF17
     /tmp/ccYzH05d.s:1576   .debug_str:0000000000000387 .LASF19
     /tmp/ccYzH05d.s:1486   .debug_str:000000000000011f .LASF44
     /tmp/ccYzH05d.s:1504   .debug_str:0000000000000199 .LASF28
     /tmp/ccYzH05d.s:1546   .debug_str:00000000000002a0 .LASF45
     /tmp/ccYzH05d.s:1548   .debug_str:00000000000002b7 .LASF18
     /tmp/ccYzH05d.s:1526   .debug_str:0000000000000231 .LASF20
     /tmp/ccYzH05d.s:1536   .debug_str:0000000000000268 .LASF46
     /tmp/ccYzH05d.s:1550   .debug_str:00000000000002c3 .LASF47
     /tmp/ccYzH05d.s:1496   .debug_str:000000000000015b .LASF21
     /tmp/ccYzH05d.s:1490   .debug_str:000000000000012a .LASF22
     /tmp/ccYzH05d.s:1542   .debug_str:0000000000000288 .LASF48
     /tmp/ccYzH05d.s:1508   .debug_str:00000000000001b3 .LASF49
GAS LISTING /tmp/ccYzH05d.s 			page 8


     /tmp/ccYzH05d.s:1534   .debug_str:0000000000000263 .LASF23
     /tmp/ccYzH05d.s:1488   .debug_str:0000000000000124 .LASF24
     /tmp/ccYzH05d.s:1558   .debug_str:0000000000000303 .LASF25
     /tmp/ccYzH05d.s:1520   .debug_str:000000000000020e .LASF26
     /tmp/ccYzH05d.s:1468   .debug_str:0000000000000000 .LASF50
     /tmp/ccYzH05d.s:1494   .debug_str:0000000000000148 .LASF51
     /tmp/ccYzH05d.s:1524   .debug_str:0000000000000223 .LASF52
     /tmp/ccYzH05d.s:1568   .debug_str:0000000000000343 .LASF53
     /tmp/ccYzH05d.s:1476   .debug_str:000000000000002f .LASF54
     /tmp/ccYzH05d.s:1570   .debug_str:000000000000036b .LASF27
     /tmp/ccYzH05d.s:1530   .debug_str:0000000000000254 .LASF29
     /tmp/ccYzH05d.s:24     .text:0000000000000000 .LFB16
     /tmp/ccYzH05d.s:173    .text:0000000000000104 .LFE16
     /tmp/ccYzH05d.s:1564   .debug_str:000000000000032e .LASF30
     /tmp/ccYzH05d.s:115    .text:00000000000000a4 .LBB14
     /tmp/ccYzH05d.s:150    .text:00000000000000d8 .LBE14
     /tmp/ccYzH05d.s:1552   .debug_str:00000000000002d3 .LASF31
     /tmp/ccYzH05d.s:1414   .debug_loc:0000000000000000 .LLST2
     /tmp/ccYzH05d.s:1472   .debug_str:000000000000001c .LASF32
     /tmp/ccYzH05d.s:1480   .debug_str:00000000000000fe .LASF55
     /tmp/ccYzH05d.s:1425   .debug_loc:0000000000000036 .LLST3
     /tmp/ccYzH05d.s:1532   .debug_str:0000000000000259 .LASF33
     /tmp/ccYzH05d.s:135    .text:00000000000000c4 .LBB15
     /tmp/ccYzH05d.s:149    .text:00000000000000d8 .LBE15
     /tmp/ccYzH05d.s:1432   .debug_loc:0000000000000059 .LLST4
     /tmp/ccYzH05d.s:144    .text:00000000000000d4 .LVL15
     /tmp/ccYzH05d.s:119    .text:00000000000000b0 .LVL11
     /tmp/ccYzH05d.s:87     .text:0000000000000088 .LBB10
     /tmp/ccYzH05d.s:95     .text:000000000000008c .LBE10
     /tmp/ccYzH05d.s:1439   .debug_loc:000000000000007c .LLST0
     /tmp/ccYzH05d.s:101    .text:0000000000000094 .LBB12
     /tmp/ccYzH05d.s:108    .text:0000000000000098 .LBE12
     /tmp/ccYzH05d.s:1446   .debug_loc:000000000000009f .LLST1
     /tmp/ccYzH05d.s:45     .text:0000000000000024 .LVL0
     /tmp/ccYzH05d.s:55     .text:0000000000000040 .LVL1
     /tmp/ccYzH05d.s:62     .text:0000000000000054 .LVL2
     /tmp/ccYzH05d.s:67     .text:0000000000000064 .LVL3
     /tmp/ccYzH05d.s:74     .text:0000000000000078 .LVL4
     /tmp/ccYzH05d.s:80     .text:0000000000000084 .LVL5
     /tmp/ccYzH05d.s:155    .text:00000000000000e8 .LVL17
     /tmp/ccYzH05d.s:1514   .debug_str:00000000000001e4 .LASF34
     /tmp/ccYzH05d.s:1566   .debug_str:0000000000000339 .LASF35
     /tmp/ccYzH05d.s:1528   .debug_str:0000000000000248 .LASF56
     /tmp/ccYzH05d.s:1580   .debug_str:00000000000003ae .LASF36
     /tmp/ccYzH05d.s:1562   .debug_str:000000000000031b .LASF38
     /tmp/ccYzH05d.s:1574   .debug_str:0000000000000380 .LASF37
     /tmp/ccYzH05d.s:1544   .debug_str:0000000000000290 .LASF39
     /tmp/ccYzH05d.s:1510   .debug_str:00000000000001c3 .LASF57
     /tmp/ccYzH05d.s:1582   .debug_str:00000000000003b5 .LASF58
     /tmp/ccYzH05d.s:113    .text:00000000000000a4 .LVL10
     /tmp/ccYzH05d.s:123    .text:00000000000000b4 .LVL12
     /tmp/ccYzH05d.s:128    .text:00000000000000bc .LVL13
     /tmp/ccYzH05d.s:146    .text:00000000000000d8 .LVL16
     /tmp/ccYzH05d.s:166    .text:00000000000000f8 .LVL18
     /tmp/ccYzH05d.s:134    .text:00000000000000c4 .LVL14
     /tmp/ccYzH05d.s:86     .text:0000000000000088 .LVL6
     /tmp/ccYzH05d.s:93     .text:000000000000008c .LVL7
GAS LISTING /tmp/ccYzH05d.s 			page 9


     /tmp/ccYzH05d.s:100    .text:0000000000000094 .LVL8
     /tmp/ccYzH05d.s:106    .text:0000000000000098 .LVL9
     /tmp/ccYzH05d.s:179    .debug_info:0000000000000000 .Ldebug_info0

UNDEFINED SYMBOLS
_ZN3CCB15createCoroutineEPFvvE
_ZN3CCB7runningE
_Z11workerBodyAv
_Z11printStringPKc
_Z11workerBodyBv
_ZN3CCB5yieldEv
_ZdlPv
_ZdaPv
