GAS LISTING /tmp/cc0yvqOY.s 			page 1


   1              		.file	"new.cpp"
   2              		.option nopic
   3              		.option norelax
   4              		.attribute arch, "rv64i2p0_m2p0_a2p0"
   5              		.attribute unaligned_access, 0
   6              		.attribute stack_align, 16
   7              		.text
   8              	.Ltext0:
   9              		.align	2
  10              		.globl	_Znwm
  12              	_Znwm:
  13              	.LFB0:
  14              		.file 1 "src/new.cpp"
   1:src/new.cpp   **** #include "../lib/mem.h"
   2:src/new.cpp   **** 
   3:src/new.cpp   **** void *operator new(uint64 n) { return __mem_alloc(n); }
  15              		.loc 1 3 30
  16              		.cfi_startproc
  17              	.LVL0:
  18 0000 130101FF 		addi	sp,sp,-16
  19              		.cfi_def_cfa_offset 16
  20 0004 23341100 		sd	ra,8(sp)
  21 0008 23308100 		sd	s0,0(sp)
  22              		.cfi_offset 1, -8
  23              		.cfi_offset 8, -16
  24 000c 13040101 		addi	s0,sp,16
  25              		.cfi_def_cfa 8, 0
  26              		.loc 1 3 32
  27              		.loc 1 3 50 is_stmt 0
  28 0010 97000000 		call	__mem_alloc
  28      E7800000 
  29              	.LVL1:
  30              		.loc 1 3 55
  31 0018 83308100 		ld	ra,8(sp)
  32              		.cfi_restore 1
  33 001c 03340100 		ld	s0,0(sp)
  34              		.cfi_restore 8
  35              		.cfi_def_cfa 2, 16
  36 0020 13010101 		addi	sp,sp,16
  37              		.cfi_def_cfa_offset 0
  38 0024 67800000 		jr	ra
  39              		.cfi_endproc
  40              	.LFE0:
  42              		.align	2
  43              		.globl	_Znam
  45              	_Znam:
  46              	.LFB1:
   4:src/new.cpp   **** void *operator new[](uint64 n) { return __mem_alloc(n); }
  47              		.loc 1 4 32 is_stmt 1
  48              		.cfi_startproc
  49              	.LVL2:
  50 0028 130101FF 		addi	sp,sp,-16
  51              		.cfi_def_cfa_offset 16
  52 002c 23341100 		sd	ra,8(sp)
  53 0030 23308100 		sd	s0,0(sp)
  54              		.cfi_offset 1, -8
  55              		.cfi_offset 8, -16
GAS LISTING /tmp/cc0yvqOY.s 			page 2


  56 0034 13040101 		addi	s0,sp,16
  57              		.cfi_def_cfa 8, 0
  58              		.loc 1 4 34
  59              		.loc 1 4 52 is_stmt 0
  60 0038 97000000 		call	__mem_alloc
  60      E7800000 
  61              	.LVL3:
  62              		.loc 1 4 57
  63 0040 83308100 		ld	ra,8(sp)
  64              		.cfi_restore 1
  65 0044 03340100 		ld	s0,0(sp)
  66              		.cfi_restore 8
  67              		.cfi_def_cfa 2, 16
  68 0048 13010101 		addi	sp,sp,16
  69              		.cfi_def_cfa_offset 0
  70 004c 67800000 		jr	ra
  71              		.cfi_endproc
  72              	.LFE1:
  74              		.align	2
  75              		.globl	_ZdlPv
  77              	_ZdlPv:
  78              	.LFB2:
   5:src/new.cpp   **** void operator delete(void *n) noexcept { __mem_free(n); }
  79              		.loc 1 5 40 is_stmt 1
  80              		.cfi_startproc
  81              		.cfi_personality 0x9b,DW.ref.__gxx_personality_v0
  82              		.cfi_lsda 0x1b,.LLSDA2
  83              	.LVL4:
  84 0050 130101FF 		addi	sp,sp,-16
  85              		.cfi_def_cfa_offset 16
  86 0054 23341100 		sd	ra,8(sp)
  87 0058 23308100 		sd	s0,0(sp)
  88              		.cfi_offset 1, -8
  89              		.cfi_offset 8, -16
  90 005c 13040101 		addi	s0,sp,16
  91              		.cfi_def_cfa 8, 0
  92              		.loc 1 5 42
  93              		.loc 1 5 52 is_stmt 0
  94 0060 97000000 		call	__mem_free
  94      E7800000 
  95              	.LVL5:
  96              		.loc 1 5 57
  97 0068 83308100 		ld	ra,8(sp)
  98              		.cfi_restore 1
  99 006c 03340100 		ld	s0,0(sp)
 100              		.cfi_restore 8
 101              		.cfi_def_cfa 2, 16
 102 0070 13010101 		addi	sp,sp,16
 103              		.cfi_def_cfa_offset 0
 104 0074 67800000 		jr	ra
 105              		.cfi_endproc
 106              	.LFE2:
 107              		.globl	__gxx_personality_v0
 108              		.section	.gcc_except_table,"aw",@progbits
 109              	.LLSDA2:
 110 0000 FF       		.byte	0xff
 111 0001 FF       		.byte	0xff
GAS LISTING /tmp/cc0yvqOY.s 			page 3


 112 0002 03       		.byte	0x3
 113 0003 00       		.byte	0
 114              		.text
 116              		.align	2
 117              		.globl	_ZdaPv
 119              	_ZdaPv:
 120              	.LFB3:
   6:src/new.cpp   **** void operator delete[](void *n) noexcept { __mem_free(n); }...
 121              		.loc 1 6 42 is_stmt 1
 122              		.cfi_startproc
 123              		.cfi_personality 0x9b,DW.ref.__gxx_personality_v0
 124              		.cfi_lsda 0x1b,.LLSDA3
 125              	.LVL6:
 126 0078 130101FF 		addi	sp,sp,-16
 127              		.cfi_def_cfa_offset 16
 128 007c 23341100 		sd	ra,8(sp)
 129 0080 23308100 		sd	s0,0(sp)
 130              		.cfi_offset 1, -8
 131              		.cfi_offset 8, -16
 132 0084 13040101 		addi	s0,sp,16
 133              		.cfi_def_cfa 8, 0
 134              		.loc 1 6 44
 135              		.loc 1 6 54 is_stmt 0
 136 0088 97000000 		call	__mem_free
 136      E7800000 
 137              	.LVL7:
 138              		.loc 1 6 59
 139 0090 83308100 		ld	ra,8(sp)
 140              		.cfi_restore 1
 141 0094 03340100 		ld	s0,0(sp)
 142              		.cfi_restore 8
 143              		.cfi_def_cfa 2, 16
 144 0098 13010101 		addi	sp,sp,16
 145              		.cfi_def_cfa_offset 0
 146 009c 67800000 		jr	ra
 147              		.cfi_endproc
 148              	.LFE3:
 149              		.section	.gcc_except_table
 150              	.LLSDA3:
 151 0004 FF       		.byte	0xff
 152 0005 FF       		.byte	0xff
 153 0006 03       		.byte	0x3
 154 0007 00       		.byte	0
 155              		.text
 157              	.Letext0:
 158              		.file 2 "src/../lib/hw.h"
 159              		.file 3 "src/../lib/mem.h"
 794              		.align	3
 797              	DW.ref.__gxx_personality_v0:
 798 0000 00000000 		.dword	__gxx_personality_v0
 798      00000000 
 799              		.ident	"GCC: () 9.3.0"
GAS LISTING /tmp/cc0yvqOY.s 			page 4

