GAS LISTING /tmp/cc0yvqOY.s 			page 1


   1              		.file	"new.cpp"
   2              		.option nopic
   3              		.option norelax
   4              		.attribute arch, "rv64i2p0_m2p0_a2p0"
   5              		.attribute unaligned_access, 0
   6              		.attribute stack_align, 16
   7              		.text
   8              	.Ltext0:
   9              		.align	2
  10              		.globl	_Znwm
  12              	_Znwm:
  13              	.LFB0:
  14              		.file 1 "src/new.cpp"
   1:src/new.cpp   **** #include "../lib/mem.h"
   2:src/new.cpp   **** 
   3:src/new.cpp   **** void *operator new(uint64 n) { return __mem_alloc(n); }
  15              		.loc 1 3 30
  16              		.cfi_startproc
  17              	.LVL0:
  18 0000 130101FF 		addi	sp,sp,-16
  19              		.cfi_def_cfa_offset 16
  20 0004 23341100 		sd	ra,8(sp)
  21 0008 23308100 		sd	s0,0(sp)
  22              		.cfi_offset 1, -8
  23              		.cfi_offset 8, -16
  24 000c 13040101 		addi	s0,sp,16
  25              		.cfi_def_cfa 8, 0
  26              		.loc 1 3 32
  27              		.loc 1 3 50 is_stmt 0
  28 0010 97000000 		call	__mem_alloc
  28      E7800000 
  29              	.LVL1:
  30              		.loc 1 3 55
  31 0018 83308100 		ld	ra,8(sp)
  32              		.cfi_restore 1
  33 001c 03340100 		ld	s0,0(sp)
  34              		.cfi_restore 8
  35              		.cfi_def_cfa 2, 16
  36 0020 13010101 		addi	sp,sp,16
  37              		.cfi_def_cfa_offset 0
  38 0024 67800000 		jr	ra
  39              		.cfi_endproc
  40              	.LFE0:
  42              		.align	2
  43              		.globl	_Znam
  45              	_Znam:
  46              	.LFB1:
   4:src/new.cpp   **** void *operator new[](uint64 n) { return __mem_alloc(n); }
  47              		.loc 1 4 32 is_stmt 1
  48              		.cfi_startproc
  49              	.LVL2:
  50 0028 130101FF 		addi	sp,sp,-16
  51              		.cfi_def_cfa_offset 16
  52 002c 23341100 		sd	ra,8(sp)
  53 0030 23308100 		sd	s0,0(sp)
  54              		.cfi_offset 1, -8
  55              		.cfi_offset 8, -16
GAS LISTING /tmp/cc0yvqOY.s 			page 2


  56 0034 13040101 		addi	s0,sp,16
  57              		.cfi_def_cfa 8, 0
  58              		.loc 1 4 34
  59              		.loc 1 4 52 is_stmt 0
  60 0038 97000000 		call	__mem_alloc
  60      E7800000 
  61              	.LVL3:
  62              		.loc 1 4 57
  63 0040 83308100 		ld	ra,8(sp)
  64              		.cfi_restore 1
  65 0044 03340100 		ld	s0,0(sp)
  66              		.cfi_restore 8
  67              		.cfi_def_cfa 2, 16
  68 0048 13010101 		addi	sp,sp,16
  69              		.cfi_def_cfa_offset 0
  70 004c 67800000 		jr	ra
  71              		.cfi_endproc
  72              	.LFE1:
  74              		.align	2
  75              		.globl	_ZdlPv
  77              	_ZdlPv:
  78              	.LFB2:
   5:src/new.cpp   **** void operator delete(void *n) noexcept { __mem_free(n); }
  79              		.loc 1 5 40 is_stmt 1
  80              		.cfi_startproc
  81              		.cfi_personality 0x9b,DW.ref.__gxx_personality_v0
  82              		.cfi_lsda 0x1b,.LLSDA2
  83              	.LVL4:
  84 0050 130101FF 		addi	sp,sp,-16
  85              		.cfi_def_cfa_offset 16
  86 0054 23341100 		sd	ra,8(sp)
  87 0058 23308100 		sd	s0,0(sp)
  88              		.cfi_offset 1, -8
  89              		.cfi_offset 8, -16
  90 005c 13040101 		addi	s0,sp,16
  91              		.cfi_def_cfa 8, 0
  92              		.loc 1 5 42
  93              		.loc 1 5 52 is_stmt 0
  94 0060 97000000 		call	__mem_free
  94      E7800000 
  95              	.LVL5:
  96              		.loc 1 5 57
  97 0068 83308100 		ld	ra,8(sp)
  98              		.cfi_restore 1
  99 006c 03340100 		ld	s0,0(sp)
 100              		.cfi_restore 8
 101              		.cfi_def_cfa 2, 16
 102 0070 13010101 		addi	sp,sp,16
 103              		.cfi_def_cfa_offset 0
 104 0074 67800000 		jr	ra
 105              		.cfi_endproc
 106              	.LFE2:
 107              		.globl	__gxx_personality_v0
 108              		.section	.gcc_except_table,"aw",@progbits
 109              	.LLSDA2:
 110 0000 FF       		.byte	0xff
 111 0001 FF       		.byte	0xff
GAS LISTING /tmp/cc0yvqOY.s 			page 3


 112 0002 03       		.byte	0x3
 113 0003 00       		.byte	0
 114              		.text
 116              		.align	2
 117              		.globl	_ZdaPv
 119              	_ZdaPv:
 120              	.LFB3:
   6:src/new.cpp   **** void operator delete[](void *n) noexcept { __mem_free(n); }...
 121              		.loc 1 6 42 is_stmt 1
 122              		.cfi_startproc
 123              		.cfi_personality 0x9b,DW.ref.__gxx_personality_v0
 124              		.cfi_lsda 0x1b,.LLSDA3
 125              	.LVL6:
 126 0078 130101FF 		addi	sp,sp,-16
 127              		.cfi_def_cfa_offset 16
 128 007c 23341100 		sd	ra,8(sp)
 129 0080 23308100 		sd	s0,0(sp)
 130              		.cfi_offset 1, -8
 131              		.cfi_offset 8, -16
 132 0084 13040101 		addi	s0,sp,16
 133              		.cfi_def_cfa 8, 0
 134              		.loc 1 6 44
 135              		.loc 1 6 54 is_stmt 0
 136 0088 97000000 		call	__mem_free
 136      E7800000 
 137              	.LVL7:
 138              		.loc 1 6 59
 139 0090 83308100 		ld	ra,8(sp)
 140              		.cfi_restore 1
 141 0094 03340100 		ld	s0,0(sp)
 142              		.cfi_restore 8
 143              		.cfi_def_cfa 2, 16
 144 0098 13010101 		addi	sp,sp,16
 145              		.cfi_def_cfa_offset 0
 146 009c 67800000 		jr	ra
 147              		.cfi_endproc
 148              	.LFE3:
 149              		.section	.gcc_except_table
 150              	.LLSDA3:
 151 0004 FF       		.byte	0xff
 152 0005 FF       		.byte	0xff
 153 0006 03       		.byte	0x3
 154 0007 00       		.byte	0
 155              		.text
 157              	.Letext0:
 158              		.file 2 "src/../lib/hw.h"
 159              		.file 3 "src/../lib/mem.h"
 794              		.align	3
 797              	DW.ref.__gxx_personality_v0:
 798 0000 00000000 		.dword	__gxx_personality_v0
 798      00000000 
 799              		.ident	"GCC: () 9.3.0"
GAS LISTING /tmp/cc0yvqOY.s 			page 4


DEFINED SYMBOLS
                            *ABS*:0000000000000000 new.cpp
     /tmp/cc0yvqOY.s:12     .text:0000000000000000 _Znwm
     /tmp/cc0yvqOY.s:16     .text:0000000000000000 .L0 
     /tmp/cc0yvqOY.s:18     .text:0000000000000000 .L0 
     /tmp/cc0yvqOY.s:19     .text:0000000000000004 .L0 
     /tmp/cc0yvqOY.s:22     .text:000000000000000c .L0 
     /tmp/cc0yvqOY.s:23     .text:000000000000000c .L0 
     /tmp/cc0yvqOY.s:25     .text:0000000000000010 .L0 
     /tmp/cc0yvqOY.s:27     .text:0000000000000010 .L0 
     /tmp/cc0yvqOY.s:28     .text:0000000000000010 .L0 
     /tmp/cc0yvqOY.s:31     .text:0000000000000018 .L0 
     /tmp/cc0yvqOY.s:32     .text:000000000000001c .L0 
     /tmp/cc0yvqOY.s:34     .text:0000000000000020 .L0 
     /tmp/cc0yvqOY.s:35     .text:0000000000000020 .L0 
     /tmp/cc0yvqOY.s:37     .text:0000000000000024 .L0 
     /tmp/cc0yvqOY.s:39     .text:0000000000000028 .L0 
     /tmp/cc0yvqOY.s:45     .text:0000000000000028 _Znam
     /tmp/cc0yvqOY.s:48     .text:0000000000000028 .L0 
     /tmp/cc0yvqOY.s:50     .text:0000000000000028 .L0 
     /tmp/cc0yvqOY.s:51     .text:000000000000002c .L0 
     /tmp/cc0yvqOY.s:54     .text:0000000000000034 .L0 
     /tmp/cc0yvqOY.s:55     .text:0000000000000034 .L0 
     /tmp/cc0yvqOY.s:57     .text:0000000000000038 .L0 
     /tmp/cc0yvqOY.s:59     .text:0000000000000038 .L0 
     /tmp/cc0yvqOY.s:60     .text:0000000000000038 .L0 
     /tmp/cc0yvqOY.s:63     .text:0000000000000040 .L0 
     /tmp/cc0yvqOY.s:64     .text:0000000000000044 .L0 
     /tmp/cc0yvqOY.s:66     .text:0000000000000048 .L0 
     /tmp/cc0yvqOY.s:67     .text:0000000000000048 .L0 
     /tmp/cc0yvqOY.s:69     .text:000000000000004c .L0 
     /tmp/cc0yvqOY.s:71     .text:0000000000000050 .L0 
     /tmp/cc0yvqOY.s:77     .text:0000000000000050 _ZdlPv
     /tmp/cc0yvqOY.s:80     .text:0000000000000050 .L0 
     /tmp/cc0yvqOY.s:797    .sdata.DW.ref.__gxx_personality_v0:0000000000000000 DW.ref.__gxx_personality_v0
     /tmp/cc0yvqOY.s:84     .text:0000000000000050 .L0 
     /tmp/cc0yvqOY.s:85     .text:0000000000000054 .L0 
     /tmp/cc0yvqOY.s:88     .text:000000000000005c .L0 
     /tmp/cc0yvqOY.s:89     .text:000000000000005c .L0 
     /tmp/cc0yvqOY.s:91     .text:0000000000000060 .L0 
     /tmp/cc0yvqOY.s:93     .text:0000000000000060 .L0 
     /tmp/cc0yvqOY.s:94     .text:0000000000000060 .L0 
     /tmp/cc0yvqOY.s:97     .text:0000000000000068 .L0 
     /tmp/cc0yvqOY.s:98     .text:000000000000006c .L0 
     /tmp/cc0yvqOY.s:100    .text:0000000000000070 .L0 
     /tmp/cc0yvqOY.s:101    .text:0000000000000070 .L0 
     /tmp/cc0yvqOY.s:103    .text:0000000000000074 .L0 
     /tmp/cc0yvqOY.s:105    .text:0000000000000078 .L0 
     /tmp/cc0yvqOY.s:119    .text:0000000000000078 _ZdaPv
     /tmp/cc0yvqOY.s:122    .text:0000000000000078 .L0 
     /tmp/cc0yvqOY.s:126    .text:0000000000000078 .L0 
     /tmp/cc0yvqOY.s:127    .text:000000000000007c .L0 
     /tmp/cc0yvqOY.s:130    .text:0000000000000084 .L0 
     /tmp/cc0yvqOY.s:131    .text:0000000000000084 .L0 
     /tmp/cc0yvqOY.s:133    .text:0000000000000088 .L0 
     /tmp/cc0yvqOY.s:135    .text:0000000000000088 .L0 
     /tmp/cc0yvqOY.s:136    .text:0000000000000088 .L0 
GAS LISTING /tmp/cc0yvqOY.s 			page 5


     /tmp/cc0yvqOY.s:139    .text:0000000000000090 .L0 
     /tmp/cc0yvqOY.s:140    .text:0000000000000094 .L0 
     /tmp/cc0yvqOY.s:142    .text:0000000000000098 .L0 
     /tmp/cc0yvqOY.s:143    .text:0000000000000098 .L0 
     /tmp/cc0yvqOY.s:145    .text:000000000000009c .L0 
     /tmp/cc0yvqOY.s:147    .text:00000000000000a0 .L0 
     /tmp/cc0yvqOY.s:160    .text:00000000000000a0 .L0 
     /tmp/cc0yvqOY.s:420    .debug_abbrev:0000000000000000 .Ldebug_abbrev0
     /tmp/cc0yvqOY.s:747    .debug_str:0000000000000063 .LASF27
     /tmp/cc0yvqOY.s:781    .debug_str:000000000000021a .LASF28
     /tmp/cc0yvqOY.s:787    .debug_str:000000000000023c .LASF29
     /tmp/cc0yvqOY.s:8      .text:0000000000000000 .Ltext0
     /tmp/cc0yvqOY.s:157    .text:00000000000000a0 .Letext0
     /tmp/cc0yvqOY.s:729    .debug_line:0000000000000000 .Ldebug_line0
     /tmp/cc0yvqOY.s:737    .debug_str:0000000000000022 .LASF0
     /tmp/cc0yvqOY.s:773    .debug_str:00000000000001e1 .LASF1
     /tmp/cc0yvqOY.s:761    .debug_str:000000000000017b .LASF2
     /tmp/cc0yvqOY.s:755    .debug_str:0000000000000158 .LASF4
     /tmp/cc0yvqOY.s:749    .debug_str:0000000000000127 .LASF3
     /tmp/cc0yvqOY.s:743    .debug_str:000000000000004c .LASF5
     /tmp/cc0yvqOY.s:753    .debug_str:0000000000000145 .LASF6
     /tmp/cc0yvqOY.s:771    .debug_str:00000000000001ce .LASF7
     /tmp/cc0yvqOY.s:785    .debug_str:000000000000022c .LASF8
     /tmp/cc0yvqOY.s:739    .debug_str:000000000000002f .LASF9
     /tmp/cc0yvqOY.s:741    .debug_str:000000000000003d .LASF10
     /tmp/cc0yvqOY.s:777    .debug_str:0000000000000204 .LASF11
     /tmp/cc0yvqOY.s:745    .debug_str:0000000000000053 .LASF12
     /tmp/cc0yvqOY.s:775    .debug_str:00000000000001f4 .LASF13
     /tmp/cc0yvqOY.s:759    .debug_str:000000000000016f .LASF14
     /tmp/cc0yvqOY.s:767    .debug_str:00000000000001b2 .LASF15
     /tmp/cc0yvqOY.s:765    .debug_str:000000000000019c .LASF16
     /tmp/cc0yvqOY.s:763    .debug_str:0000000000000189 .LASF17
     /tmp/cc0yvqOY.s:779    .debug_str:0000000000000213 .LASF19
     /tmp/cc0yvqOY.s:120    .text:0000000000000078 .LFB3
     /tmp/cc0yvqOY.s:148    .text:00000000000000a0 .LFE3
     /tmp/cc0yvqOY.s:660    .debug_loc:0000000000000000 .LLST3
     /tmp/cc0yvqOY.s:137    .text:0000000000000090 .LVL7
     /tmp/cc0yvqOY.s:757    .debug_str:000000000000015f .LASF18
     /tmp/cc0yvqOY.s:735    .debug_str:000000000000001b .LASF20
     /tmp/cc0yvqOY.s:78     .text:0000000000000050 .LFB2
     /tmp/cc0yvqOY.s:106    .text:0000000000000078 .LFE2
     /tmp/cc0yvqOY.s:674    .debug_loc:0000000000000039 .LLST2
     /tmp/cc0yvqOY.s:95     .text:0000000000000068 .LVL5
     /tmp/cc0yvqOY.s:733    .debug_str:000000000000000b .LASF21
     /tmp/cc0yvqOY.s:769    .debug_str:00000000000001c8 .LASF23
     /tmp/cc0yvqOY.s:46     .text:0000000000000028 .LFB1
     /tmp/cc0yvqOY.s:72     .text:0000000000000050 .LFE1
     /tmp/cc0yvqOY.s:688    .debug_loc:0000000000000072 .LLST1
     /tmp/cc0yvqOY.s:61     .text:0000000000000040 .LVL3
     /tmp/cc0yvqOY.s:789    .debug_str:000000000000024e .LASF22
     /tmp/cc0yvqOY.s:783    .debug_str:0000000000000226 .LASF24
     /tmp/cc0yvqOY.s:13     .text:0000000000000000 .LFB0
     /tmp/cc0yvqOY.s:40     .text:0000000000000028 .LFE0
     /tmp/cc0yvqOY.s:702    .debug_loc:00000000000000ab .LLST0
     /tmp/cc0yvqOY.s:29     .text:0000000000000018 .LVL1
     /tmp/cc0yvqOY.s:731    .debug_str:0000000000000000 .LASF25
     /tmp/cc0yvqOY.s:751    .debug_str:0000000000000139 .LASF26
GAS LISTING /tmp/cc0yvqOY.s 			page 6


     /tmp/cc0yvqOY.s:125    .text:0000000000000078 .LVL6
     /tmp/cc0yvqOY.s:83     .text:0000000000000050 .LVL4
     /tmp/cc0yvqOY.s:49     .text:0000000000000028 .LVL2
     /tmp/cc0yvqOY.s:17     .text:0000000000000000 .LVL0
     /tmp/cc0yvqOY.s:161    .debug_info:0000000000000000 .Ldebug_info0
     /tmp/cc0yvqOY.s:109    .gcc_except_table:0000000000000000 .LLSDA2
     /tmp/cc0yvqOY.s:150    .gcc_except_table:0000000000000004 .LLSDA3

UNDEFINED SYMBOLS
__mem_alloc
__mem_free
__gxx_personality_v0
