GAS LISTING /tmp/ccCe5sCq.s 			page 1


   1              		.file	"print.cpp"
   2              		.option pic
   3              		.option norelax
   4              		.text
   5              	.Ltext0:
   6              		.align	2
   7              		.globl	_Z11printStringPKc
   9              	_Z11printStringPKc:
  10              	.LFB16:
  11              		.file 1 "src/print.cpp"
   1:src/print.cpp **** #include "../h/print.hpp"
   2:src/print.cpp **** #include "../lib/console.h"
   3:src/print.cpp **** #include "../h/riscv.hpp"
   4:src/print.cpp **** 
   5:src/print.cpp **** void printString(const char *string) {
  12              		.loc 1 5 38
  13              		.cfi_startproc
  14              	.LVL0:
  15 0000 130101FD 		addi	sp,sp,-48
  16              		.cfi_def_cfa_offset 48
  17 0004 23341102 		sd	ra,40(sp)
  18 0008 23308102 		sd	s0,32(sp)
  19 000c 233C9100 		sd	s1,24(sp)
  20 0010 23382101 		sd	s2,16(sp)
  21              		.cfi_offset 1, -8
  22              		.cfi_offset 8, -16
  23              		.cfi_offset 9, -24
  24              		.cfi_offset 18, -32
  25 0014 13040103 		addi	s0,sp,48
  26              		.cfi_def_cfa 8, 0
  27 0018 93040500 		mv	s1,a0
   6:src/print.cpp ****     uint64 sstatus = Riscv::r_sstatus();
  28              		.loc 1 6 5
  29              	.LBB14:
  30              	.LBB15:
  31              		.file 2 "src/../h/riscv.hpp"
   1:src/../h/riscv.hpp **** #ifndef riscv_hpp
   2:src/../h/riscv.hpp **** #define riscv_hpp
   3:src/../h/riscv.hpp **** 
   4:src/../h/riscv.hpp **** #include "../lib/hw.h"
   5:src/../h/riscv.hpp **** // Vezbe 7
   6:src/../h/riscv.hpp **** 
   7:src/../h/riscv.hpp **** class Riscv {
   8:src/../h/riscv.hpp **** public:
   9:src/../h/riscv.hpp ****     static void pushRegisters();
  10:src/../h/riscv.hpp **** 
  11:src/../h/riscv.hpp ****     static void popRegisters();;
  12:src/../h/riscv.hpp **** 
  13:src/../h/riscv.hpp ****     static void popSppSpie();//has to be non inline function
  14:src/../h/riscv.hpp ****     // read register scause
  15:src/../h/riscv.hpp ****     static uint64 r_scause();
  16:src/../h/riscv.hpp **** 
  17:src/../h/riscv.hpp ****     // write register scause
  18:src/../h/riscv.hpp ****     static void w_scause(uint64 scause);
  19:src/../h/riscv.hpp **** 
  20:src/../h/riscv.hpp ****     // read registre sepc
  21:src/../h/riscv.hpp ****     static uint64 r_sepc();
GAS LISTING /tmp/ccCe5sCq.s 			page 2


  22:src/../h/riscv.hpp **** 
  23:src/../h/riscv.hpp ****     // write register sepc
  24:src/../h/riscv.hpp ****     static void w_sepc(uint64 sepc);
  25:src/../h/riscv.hpp **** 
  26:src/../h/riscv.hpp ****     // read registre stvec
  27:src/../h/riscv.hpp ****     static uint64 r_stvec();
  28:src/../h/riscv.hpp **** 
  29:src/../h/riscv.hpp ****     // write register stvec
  30:src/../h/riscv.hpp ****     static void w_stvec(uint64 stvec);
  31:src/../h/riscv.hpp **** 
  32:src/../h/riscv.hpp ****     // read registre stval
  33:src/../h/riscv.hpp ****     static uint64 r_stval();
  34:src/../h/riscv.hpp **** 
  35:src/../h/riscv.hpp ****     // write register stval
  36:src/../h/riscv.hpp ****     static void w_stval(uint64 stval);
  37:src/../h/riscv.hpp **** 
  38:src/../h/riscv.hpp ****     enum BitMaskSip {
  39:src/../h/riscv.hpp ****         SIP_SSIP = (1 << 1),
  40:src/../h/riscv.hpp ****         SIP_STIP = (1 << 5),
  41:src/../h/riscv.hpp ****         SIP_SEIP = (1 << 9),
  42:src/../h/riscv.hpp ****     };
  43:src/../h/riscv.hpp **** 
  44:src/../h/riscv.hpp ****     static void ms_sip(uint64 mask);
  45:src/../h/riscv.hpp **** 
  46:src/../h/riscv.hpp ****     static void mc_sip(uint64 mask);
  47:src/../h/riscv.hpp **** 
  48:src/../h/riscv.hpp ****     static uint64 r_sip();
  49:src/../h/riscv.hpp **** 
  50:src/../h/riscv.hpp ****     static void w_sip(uint64 mask);
  51:src/../h/riscv.hpp **** 
  52:src/../h/riscv.hpp ****     enum BitMaskSstatus{
  53:src/../h/riscv.hpp ****         SSTATUS_SIE = (1 << 1),
  54:src/../h/riscv.hpp ****         SSTATUS_SPIE = (1 << 5),
  55:src/../h/riscv.hpp ****         SSTATUS_SPP = (1 << 8),
  56:src/../h/riscv.hpp ****     };
  57:src/../h/riscv.hpp **** 
  58:src/../h/riscv.hpp ****     // mask set register sstatus
  59:src/../h/riscv.hpp ****     static void ms_sstatus(uint64 mask);
  60:src/../h/riscv.hpp **** 
  61:src/../h/riscv.hpp ****     // mask clear register sstatus
  62:src/../h/riscv.hpp ****     static void mc_sstatus(uint64 mask);
  63:src/../h/riscv.hpp **** 
  64:src/../h/riscv.hpp ****     // read register sstatus
  65:src/../h/riscv.hpp ****     static uint64 r_sstatus();
  66:src/../h/riscv.hpp **** 
  67:src/../h/riscv.hpp ****     // wrute register sstatus
  68:src/../h/riscv.hpp ****     static void w_sstatus(uint64 sstatus);
  69:src/../h/riscv.hpp **** 
  70:src/../h/riscv.hpp ****     static void supervisorTrap();
  71:src/../h/riscv.hpp **** 
  72:src/../h/riscv.hpp **** private:
  73:src/../h/riscv.hpp ****     static void handleSupervisorTrap();
  74:src/../h/riscv.hpp **** };
  75:src/../h/riscv.hpp **** 
  76:src/../h/riscv.hpp **** inline uint64 Riscv::r_scause() {
  77:src/../h/riscv.hpp ****     uint64 volatile scause;
  78:src/../h/riscv.hpp ****     __asm__ volatile("csrr %[scause], scause" : [scause] "=r"(scause));
GAS LISTING /tmp/ccCe5sCq.s 			page 3


  79:src/../h/riscv.hpp ****     return scause;
  80:src/../h/riscv.hpp **** }
  81:src/../h/riscv.hpp **** 
  82:src/../h/riscv.hpp **** inline void Riscv::w_scause(uint64 scause) {
  83:src/../h/riscv.hpp ****     __asm__ volatile("csrw scause, %[scause]" : : [scause] "r"(scause));
  84:src/../h/riscv.hpp **** }
  85:src/../h/riscv.hpp **** 
  86:src/../h/riscv.hpp **** inline uint64 Riscv::r_sepc() {
  87:src/../h/riscv.hpp ****     uint64 volatile sepc;
  88:src/../h/riscv.hpp ****     __asm__ volatile("csrr %[sepc], sepc" : [sepc] "=r"(sepc));
  89:src/../h/riscv.hpp ****     return sepc;
  90:src/../h/riscv.hpp **** }
  91:src/../h/riscv.hpp **** 
  92:src/../h/riscv.hpp **** inline void Riscv::w_sepc(uint64 sepc) {
  93:src/../h/riscv.hpp ****     __asm__ volatile ("csrw sepc, %[sepc]" : : [sepc] "r"(sepc));
  94:src/../h/riscv.hpp **** }
  95:src/../h/riscv.hpp **** 
  96:src/../h/riscv.hpp **** inline uint64 Riscv::r_stvec(){
  97:src/../h/riscv.hpp ****     uint64 volatile stvec;
  98:src/../h/riscv.hpp ****     __asm__ volatile ("csrr %[stvec], stvec" : [stvec] "=r"(stvec));
  99:src/../h/riscv.hpp ****     return stvec;
 100:src/../h/riscv.hpp **** }
 101:src/../h/riscv.hpp **** 
 102:src/../h/riscv.hpp **** inline void Riscv::w_stvec(uint64 stvec) {
 103:src/../h/riscv.hpp ****     __asm__ volatile ("csrw stvec, %[stvec]" : : [stvec] "r"(stvec));
 104:src/../h/riscv.hpp **** }
 105:src/../h/riscv.hpp **** 
 106:src/../h/riscv.hpp **** inline uint64 Riscv::r_stval(){
 107:src/../h/riscv.hpp ****     uint64 volatile stval;
 108:src/../h/riscv.hpp ****     __asm__ volatile ("csrr %[stval], stval" : [stval] "=r"(stval));
 109:src/../h/riscv.hpp ****     return stval;
 110:src/../h/riscv.hpp **** }
 111:src/../h/riscv.hpp **** 
 112:src/../h/riscv.hpp **** inline void Riscv::w_stval(uint64 stval) {
 113:src/../h/riscv.hpp ****     __asm__ volatile ("csrw stval, %[stval]" : : [stval] "r"(stval));
 114:src/../h/riscv.hpp **** }
 115:src/../h/riscv.hpp **** 
 116:src/../h/riscv.hpp **** inline void Riscv::ms_sip(uint64 mask) {
 117:src/../h/riscv.hpp ****     __asm__ volatile ("csrs sip, %[mask]" : : [mask] "r"(mask));
 118:src/../h/riscv.hpp **** }
 119:src/../h/riscv.hpp **** 
 120:src/../h/riscv.hpp **** inline void Riscv::mc_sip(uint64 mask) {
 121:src/../h/riscv.hpp ****     __asm__ volatile ("csrc sip, %[mask]" : : [mask] "r"(mask));
 122:src/../h/riscv.hpp **** }
 123:src/../h/riscv.hpp **** 
 124:src/../h/riscv.hpp **** inline uint64 Riscv::r_sip() {
 125:src/../h/riscv.hpp ****     uint64 volatile sip;
 126:src/../h/riscv.hpp ****     __asm__ volatile ("csrr %[sip], sip" : [sip] "=r"(sip));
 127:src/../h/riscv.hpp ****     return sip;
 128:src/../h/riscv.hpp **** }
 129:src/../h/riscv.hpp **** 
 130:src/../h/riscv.hpp **** inline void Riscv::w_sip(uint64 sip) {
 131:src/../h/riscv.hpp ****     __asm__ volatile ("csrw sip, %[sip]" : : [sip] "r"(sip));
 132:src/../h/riscv.hpp **** }
 133:src/../h/riscv.hpp **** 
 134:src/../h/riscv.hpp **** inline void Riscv::ms_sstatus(uint64 mask) {
 135:src/../h/riscv.hpp ****     __asm__ volatile ("csrs sstatus, %[mask]" : : [mask] "r"(mask));
GAS LISTING /tmp/ccCe5sCq.s 			page 4


 136:src/../h/riscv.hpp **** }
 137:src/../h/riscv.hpp **** inline void Riscv::mc_sstatus(uint64 mask){
 138:src/../h/riscv.hpp ****     __asm__ volatile ("csrc sstatus, %[mask]" : : [mask] "r"(mask));
 139:src/../h/riscv.hpp **** }
 140:src/../h/riscv.hpp **** inline uint64 Riscv::r_sstatus(){
 141:src/../h/riscv.hpp ****     uint64 volatile sstatus;
  32              		.loc 2 141 5
 142:src/../h/riscv.hpp ****     __asm__ volatile ("csrr %[sstatus], sstatus" : [sstatus] "=r"(sstatus));
  33              		.loc 2 142 5
  34              		.loc 2 142 76 is_stmt 0
  35              	#APP
  36              	# 142 "src/../h/riscv.hpp" 1
 143              	    return sstatus;
  37              		csrr a5, sstatus
  38              	# 0 "" 2
  39              	#NO_APP
  40 0020 233CF4FC 		sd	a5,-40(s0)
  41              		.loc 2 143 5 is_stmt 1
  42              		.loc 2 143 12 is_stmt 0
  43 0024 033984FD 		ld	s2,-40(s0)
  44              	.LVL1:
  45              	.LBE15:
  46              	.LBE14:
   7:src/print.cpp ****     Riscv::mc_sstatus(Riscv::SSTATUS_SIE);
  47              		.loc 1 7 5 is_stmt 1
  48              	.LBB16:
  49              	.LBB17:
 138:src/../h/riscv.hpp **** }
  50              		.loc 2 138 5
 138:src/../h/riscv.hpp **** }
  51              		.loc 2 138 68 is_stmt 0
  52 0028 93072000 		li	a5,2
  53              	#APP
  54              	# 138 "src/../h/riscv.hpp" 1
  55              		csrc sstatus, a5
  56              	# 0 "" 2
  57              	.LVL2:
  58              	#NO_APP
  59              	.L3:
  60              	.LBE17:
  61              	.LBE16:
   8:src/print.cpp ****     while (*string != '\0') {
  62              		.loc 1 8 5 is_stmt 1
  63              		.loc 1 8 20
  64              		.loc 1 8 12 is_stmt 0
  65 0030 03C50400 		lbu	a0,0(s1)
  66              		.loc 1 8 20
  67 0034 630A0500 		beqz	a0,.L2
   9:src/print.cpp ****         __putc(*string);
  68              		.loc 1 9 9 is_stmt 1
  69              		.loc 1 9 15 is_stmt 0
  70 0038 97000000 		call	__putc@plt
  70      E7800000 
  71              	.LVL3:
  10:src/print.cpp ****         string++;
  72              		.loc 1 10 9 is_stmt 1
  73              		.loc 1 10 15 is_stmt 0
GAS LISTING /tmp/ccCe5sCq.s 			page 5


  74 0040 93841400 		addi	s1,s1,1
  75              	.LVL4:
   8:src/print.cpp ****     while (*string != '\0') {
  76              		.loc 1 8 5
  77 0044 6FF0DFFE 		j	.L3
  78              	.L2:
  11:src/print.cpp ****     }
  12:src/print.cpp ****     Riscv::ms_sstatus(sstatus & Riscv::SSTATUS_SIE ? Riscv::SSTATUS_SIE : 0);
  79              		.loc 1 12 5 is_stmt 1
  80              		.loc 1 12 52 is_stmt 0
  81 0048 1B090900 		sext.w	s2,s2
  82              	.LVL5:
  83              		.loc 1 12 22
  84 004c 13792900 		andi	s2,s2,2
  85 0050 1B090900 		sext.w	s2,s2
  86              	.LVL6:
  87              	.LBB18:
  88              	.LBB19:
 135:src/../h/riscv.hpp **** }
  89              		.loc 2 135 5 is_stmt 1
 135:src/../h/riscv.hpp **** }
  90              		.loc 2 135 68 is_stmt 0
  91              	#APP
  92              	# 135 "src/../h/riscv.hpp" 1
  93              		csrs sstatus, s2
  94              	# 0 "" 2
  95              	.LVL7:
  96              	#NO_APP
  97              	.LBE19:
  98              	.LBE18:
  13:src/print.cpp **** }
  99              		.loc 1 13 1
 100 0058 83308102 		ld	ra,40(sp)
 101              		.cfi_restore 1
 102 005c 03340102 		ld	s0,32(sp)
 103              		.cfi_restore 8
 104              		.cfi_def_cfa 2, 48
 105 0060 83348101 		ld	s1,24(sp)
 106              		.cfi_restore 9
 107              	.LVL8:
 108 0064 03390101 		ld	s2,16(sp)
 109              		.cfi_restore 18
 110 0068 13010103 		addi	sp,sp,48
 111              		.cfi_def_cfa_offset 0
 112 006c 67800000 		jr	ra
 113              		.cfi_endproc
 114              	.LFE16:
 116              		.align	2
 117              		.globl	_Z12printIntegerm
 119              	_Z12printIntegerm:
 120              	.LFB17:
  14:src/print.cpp **** 
  15:src/print.cpp **** void printInteger(uint64 integer) {
 121              		.loc 1 15 35 is_stmt 1
 122              		.cfi_startproc
 123              	.LVL9:
 124 0070 130101FC 		addi	sp,sp,-64
GAS LISTING /tmp/ccCe5sCq.s 			page 6


 125              		.cfi_def_cfa_offset 64
 126 0074 233C1102 		sd	ra,56(sp)
 127 0078 23388102 		sd	s0,48(sp)
 128 007c 23349102 		sd	s1,40(sp)
 129 0080 23302103 		sd	s2,32(sp)
 130              		.cfi_offset 1, -8
 131              		.cfi_offset 8, -16
 132              		.cfi_offset 9, -24
 133              		.cfi_offset 18, -32
 134 0084 13040104 		addi	s0,sp,64
 135              		.cfi_def_cfa 8, 0
  16:src/print.cpp ****     uint64 sstatus = Riscv::r_sstatus();
 136              		.loc 1 16 5
 137              	.LBB20:
 138              	.LBB21:
 141:src/../h/riscv.hpp ****     __asm__ volatile ("csrr %[sstatus], sstatus" : [sstatus] "=r"(sstatus));
 139              		.loc 2 141 5
 142:src/../h/riscv.hpp ****     return sstatus;
 140              		.loc 2 142 5
 142:src/../h/riscv.hpp ****     return sstatus;
 141              		.loc 2 142 76 is_stmt 0
 142              	#APP
 143              	# 142 "src/../h/riscv.hpp" 1
 144              		csrr a5, sstatus
 145              	# 0 "" 2
 146              	#NO_APP
 147 008c 2334F4FC 		sd	a5,-56(s0)
 148              		.loc 2 143 5 is_stmt 1
 149              		.loc 2 143 12 is_stmt 0
 150 0090 033984FC 		ld	s2,-56(s0)
 151              	.LVL10:
 152              	.LBE21:
 153              	.LBE20:
  17:src/print.cpp ****     Riscv::mc_sstatus(Riscv::SSTATUS_SIE);
 154              		.loc 1 17 5 is_stmt 1
 155              	.LBB22:
 156              	.LBB23:
 138:src/../h/riscv.hpp **** }
 157              		.loc 2 138 5
 138:src/../h/riscv.hpp **** }
 158              		.loc 2 138 68 is_stmt 0
 159 0094 93072000 		li	a5,2
 160              	#APP
 161              	# 138 "src/../h/riscv.hpp" 1
 162              		csrc sstatus, a5
 163              	# 0 "" 2
 164              	.LVL11:
 165              	#NO_APP
 166              	.LBE23:
 167              	.LBE22:
  18:src/print.cpp ****     static char digits[] = "0123456789";
 168              		.loc 1 18 5 is_stmt 1
  19:src/print.cpp ****     char buf[16];
 169              		.loc 1 19 5
  20:src/print.cpp ****     int i;
 170              		.loc 1 20 5
  21:src/print.cpp ****     int neg = 0;
GAS LISTING /tmp/ccCe5sCq.s 			page 7


 171              		.loc 1 21 5
  22:src/print.cpp ****     uint x;
 172              		.loc 1 22 5
  23:src/print.cpp ****     if (integer < 0) {
 173              		.loc 1 23 5
  24:src/print.cpp ****         neg = 1;
  25:src/print.cpp ****         x = -integer;
  26:src/print.cpp ****     } else {
  27:src/print.cpp ****         x = integer;
 174              		.loc 1 27 9
 175              		.loc 1 27 11 is_stmt 0
 176 009c 1B050500 		sext.w	a0,a0
 177              	.LVL12:
  28:src/print.cpp ****     }
  29:src/print.cpp ****     i = 0;
 178              		.loc 1 29 5 is_stmt 1
 179              		.loc 1 29 7 is_stmt 0
 180 00a0 93040000 		li	s1,0
 181              	.LVL13:
 182              	.L6:
  30:src/print.cpp ****     do {
 183              		.loc 1 30 5 is_stmt 1
  31:src/print.cpp ****         buf[i++] = digits[x % 10];
 184              		.loc 1 31 9
 185              		.loc 1 31 29 is_stmt 0
 186 00a4 1306A000 		li	a2,10
 187 00a8 3B77C502 		remuw	a4,a0,a2
 188              	.LVL14:
 189              		.loc 1 31 33
 190 00ac 93160702 		slli	a3,a4,32
 191 00b0 93D60602 		srli	a3,a3,32
 192 00b4 17070000 		lla	a4,.LANCHOR0
 192      13070700 
 193 00bc 3307D700 		add	a4,a4,a3
 194 00c0 03470700 		lbu	a4,0(a4)
 195              		.loc 1 31 18
 196 00c4 930604FE 		addi	a3,s0,-32
 197 00c8 B3879600 		add	a5,a3,s1
 198 00cc 9B841400 		addiw	s1,s1,1
 199              	.LVL15:
 200 00d0 2388E7FE 		sb	a4,-16(a5)
  32:src/print.cpp ****     } while ((x /= 10) != 0);
 201              		.loc 1 32 24 is_stmt 1
 202 00d4 1B070500 		sext.w	a4,a0
 203              		.loc 1 32 17 is_stmt 0
 204 00d8 3B55C502 		divuw	a0,a0,a2
 205              	.LVL16:
 206              		.loc 1 32 24
 207 00dc 93079000 		li	a5,9
 208 00e0 E3E2E7FC 		bgtu	a4,a5,.L6
 209              	.LVL17:
 210              	.L8:
  33:src/print.cpp ****     if (neg)
  34:src/print.cpp ****         buf[i++] = '-';
  35:src/print.cpp ****     while (--i >= 0)
 211              		.loc 1 35 5 is_stmt 1
 212              		.loc 1 35 16
GAS LISTING /tmp/ccCe5sCq.s 			page 8


 213 00e4 9B84F4FF 		addiw	s1,s1,-1
 214              	.LVL18:
 215 00e8 63CE0400 		bltz	s1,.L7
  36:src/print.cpp ****         __putc(buf[i]);
 216              		.loc 1 36 9
 217              		.loc 1 36 15 is_stmt 0
 218 00ec 930704FE 		addi	a5,s0,-32
 219 00f0 B3879700 		add	a5,a5,s1
 220 00f4 03C507FF 		lbu	a0,-16(a5)
 221 00f8 97000000 		call	__putc@plt
 221      E7800000 
 222              	.LVL19:
 223 0100 6FF05FFE 		j	.L8
 224              	.L7:
  37:src/print.cpp ****     Riscv::ms_sstatus(sstatus & Riscv::SSTATUS_SIE ? Riscv::SSTATUS_SIE : 0);
 225              		.loc 1 37 5 is_stmt 1
 226              		.loc 1 37 52 is_stmt 0
 227 0104 1B090900 		sext.w	s2,s2
 228              	.LVL20:
 229              		.loc 1 37 22
 230 0108 13792900 		andi	s2,s2,2
 231 010c 1B090900 		sext.w	s2,s2
 232              	.LVL21:
 233              	.LBB24:
 234              	.LBB25:
 135:src/../h/riscv.hpp **** }
 235              		.loc 2 135 5 is_stmt 1
 135:src/../h/riscv.hpp **** }
 236              		.loc 2 135 68 is_stmt 0
 237              	#APP
 238              	# 135 "src/../h/riscv.hpp" 1
 239              		csrs sstatus, s2
 240              	# 0 "" 2
 241              	.LVL22:
 242              	#NO_APP
 243              	.LBE25:
 244              	.LBE24:
  38:src/print.cpp **** }
 245              		.loc 1 38 1
 246 0114 83308103 		ld	ra,56(sp)
 247              		.cfi_restore 1
 248 0118 03340103 		ld	s0,48(sp)
 249              		.cfi_restore 8
 250              		.cfi_def_cfa 2, 64
 251 011c 83348102 		ld	s1,40(sp)
 252              		.cfi_restore 9
 253 0120 03390102 		ld	s2,32(sp)
 254              		.cfi_restore 18
 255 0124 13010104 		addi	sp,sp,64
 256              		.cfi_def_cfa_offset 0
 257 0128 67800000 		jr	ra
 258              		.cfi_endproc
 259              	.LFE17:
 261              		.section	.rodata.str1.8,"aMS",@progbits,1
 262              		.align	3
 263              	.LC0:
 264 0000 0A00     		.string	"\n"
GAS LISTING /tmp/ccCe5sCq.s 			page 9


 265              		.text
 266              		.align	2
 267              		.globl	_Z9printLinePKcm
 269              	_Z9printLinePKcm:
 270              	.LFB18:
  39:src/print.cpp **** void printLine(char const *string, uint64 integer){
 271              		.loc 1 39 51 is_stmt 1
 272              		.cfi_startproc
 273              	.LVL23:
 274 012c 130101FE 		addi	sp,sp,-32
 275              		.cfi_def_cfa_offset 32
 276 0130 233C1100 		sd	ra,24(sp)
 277 0134 23388100 		sd	s0,16(sp)
 278 0138 23349100 		sd	s1,8(sp)
 279              		.cfi_offset 1, -8
 280              		.cfi_offset 8, -16
 281              		.cfi_offset 9, -24
 282 013c 13040102 		addi	s0,sp,32
 283              		.cfi_def_cfa 8, 0
 284 0140 93840500 		mv	s1,a1
  40:src/print.cpp ****     printString(string);
 285              		.loc 1 40 5
 286              		.loc 1 40 16 is_stmt 0
 287 0144 97000000 		call	_Z11printStringPKc
 287      E7800000 
 288              	.LVL24:
  41:src/print.cpp ****     printInteger(integer);
 289              		.loc 1 41 5 is_stmt 1
 290              		.loc 1 41 17 is_stmt 0
 291 014c 13850400 		mv	a0,s1
 292 0150 97000000 		call	_Z12printIntegerm
 292      E7800000 
 293              	.LVL25:
  42:src/print.cpp ****     printString("\n");
 294              		.loc 1 42 5 is_stmt 1
 295              		.loc 1 42 16 is_stmt 0
 296 0158 17050000 		lla	a0,.LC0
 296      13050500 
 297 0160 97000000 		call	_Z11printStringPKc
 297      E7800000 
 298              	.LVL26:
  43:src/print.cpp **** }...
 299              		.loc 1 43 1
 300 0168 83308101 		ld	ra,24(sp)
 301              		.cfi_restore 1
 302 016c 03340101 		ld	s0,16(sp)
 303              		.cfi_restore 8
 304              		.cfi_def_cfa 2, 32
 305 0170 83348100 		ld	s1,8(sp)
 306              		.cfi_restore 9
 307              	.LVL27:
 308 0174 13010102 		addi	sp,sp,32
 309              		.cfi_def_cfa_offset 0
 310 0178 67800000 		jr	ra
 311              		.cfi_endproc
 312              	.LFE18:
 314              		.section	.rodata
GAS LISTING /tmp/ccCe5sCq.s 			page 10


 315              		.align	3
 316              		.set	.LANCHOR0,. + 0
 319              	_ZZ12printIntegermE6digits:
 320 0000 30313233 		.string	"0123456789"
 320      34353637 
 320      383900
 321              		.text
 322              	.Letext0:
 323              		.file 3 "src/../h/../lib/hw.h"
 324              		.file 4 "src/../lib/console.h"
GAS LISTING /tmp/ccCe5sCq.s 			page 11


DEFINED SYMBOLS
                            *ABS*:0000000000000000 print.cpp
     /tmp/ccCe5sCq.s:9      .text:0000000000000000 _Z11printStringPKc
     /tmp/ccCe5sCq.s:13     .text:0000000000000000 .L0 
     /tmp/ccCe5sCq.s:15     .text:0000000000000000 .L0 
     /tmp/ccCe5sCq.s:16     .text:0000000000000004 .L0 
     /tmp/ccCe5sCq.s:21     .text:0000000000000014 .L0 
     /tmp/ccCe5sCq.s:22     .text:0000000000000014 .L0 
     /tmp/ccCe5sCq.s:23     .text:0000000000000014 .L0 
     /tmp/ccCe5sCq.s:24     .text:0000000000000014 .L0 
     /tmp/ccCe5sCq.s:26     .text:0000000000000018 .L0 
     /tmp/ccCe5sCq.s:32     .text:000000000000001c .L0 
     /tmp/ccCe5sCq.s:33     .text:000000000000001c .L0 
     /tmp/ccCe5sCq.s:34     .text:000000000000001c .L0 
  src/../h/riscv.hpp:142    .text:000000000000001c .L0 
     /tmp/ccCe5sCq.s:42     .text:0000000000000024 .L0 
     /tmp/ccCe5sCq.s:43     .text:0000000000000024 .L0 
     /tmp/ccCe5sCq.s:50     .text:0000000000000028 .L0 
     /tmp/ccCe5sCq.s:51     .text:0000000000000028 .L0 
     /tmp/ccCe5sCq.s:52     .text:0000000000000028 .L0 
     /tmp/ccCe5sCq.s:63     .text:0000000000000030 .L0 
     /tmp/ccCe5sCq.s:64     .text:0000000000000030 .L0 
     /tmp/ccCe5sCq.s:65     .text:0000000000000030 .L0 
     /tmp/ccCe5sCq.s:67     .text:0000000000000034 .L0 
     /tmp/ccCe5sCq.s:69     .text:0000000000000038 .L0 
     /tmp/ccCe5sCq.s:70     .text:0000000000000038 .L0 
     /tmp/ccCe5sCq.s:73     .text:0000000000000040 .L0 
     /tmp/ccCe5sCq.s:74     .text:0000000000000040 .L0 
     /tmp/ccCe5sCq.s:77     .text:0000000000000044 .L0 
     /tmp/ccCe5sCq.s:80     .text:0000000000000048 .L0 
     /tmp/ccCe5sCq.s:81     .text:0000000000000048 .L0 
     /tmp/ccCe5sCq.s:84     .text:000000000000004c .L0 
     /tmp/ccCe5sCq.s:90     .text:0000000000000054 .L0 
  src/../h/riscv.hpp:135    .text:0000000000000054 .L0 
     /tmp/ccCe5sCq.s:100    .text:0000000000000058 .L0 
     /tmp/ccCe5sCq.s:101    .text:000000000000005c .L0 
     /tmp/ccCe5sCq.s:103    .text:0000000000000060 .L0 
     /tmp/ccCe5sCq.s:104    .text:0000000000000060 .L0 
     /tmp/ccCe5sCq.s:106    .text:0000000000000064 .L0 
     /tmp/ccCe5sCq.s:109    .text:0000000000000068 .L0 
     /tmp/ccCe5sCq.s:111    .text:000000000000006c .L0 
     /tmp/ccCe5sCq.s:113    .text:0000000000000070 .L0 
     /tmp/ccCe5sCq.s:119    .text:0000000000000070 _Z12printIntegerm
     /tmp/ccCe5sCq.s:122    .text:0000000000000070 .L0 
     /tmp/ccCe5sCq.s:124    .text:0000000000000070 .L0 
     /tmp/ccCe5sCq.s:125    .text:0000000000000074 .L0 
     /tmp/ccCe5sCq.s:130    .text:0000000000000084 .L0 
     /tmp/ccCe5sCq.s:131    .text:0000000000000084 .L0 
     /tmp/ccCe5sCq.s:132    .text:0000000000000084 .L0 
     /tmp/ccCe5sCq.s:133    .text:0000000000000084 .L0 
     /tmp/ccCe5sCq.s:135    .text:0000000000000088 .L0 
     /tmp/ccCe5sCq.s:139    .text:0000000000000088 .L0 
     /tmp/ccCe5sCq.s:140    .text:0000000000000088 .L0 
     /tmp/ccCe5sCq.s:141    .text:0000000000000088 .L0 
  src/../h/riscv.hpp:142    .text:0000000000000088 .L0 
     /tmp/ccCe5sCq.s:149    .text:0000000000000090 .L0 
     /tmp/ccCe5sCq.s:150    .text:0000000000000090 .L0 
GAS LISTING /tmp/ccCe5sCq.s 			page 12


     /tmp/ccCe5sCq.s:157    .text:0000000000000094 .L0 
     /tmp/ccCe5sCq.s:158    .text:0000000000000094 .L0 
     /tmp/ccCe5sCq.s:159    .text:0000000000000094 .L0 
     /tmp/ccCe5sCq.s:169    .text:000000000000009c .L0 
     /tmp/ccCe5sCq.s:170    .text:000000000000009c .L0 
     /tmp/ccCe5sCq.s:171    .text:000000000000009c .L0 
     /tmp/ccCe5sCq.s:172    .text:000000000000009c .L0 
     /tmp/ccCe5sCq.s:173    .text:000000000000009c .L0 
     /tmp/ccCe5sCq.s:174    .text:000000000000009c .L0 
     /tmp/ccCe5sCq.s:175    .text:000000000000009c .L0 
     /tmp/ccCe5sCq.s:176    .text:000000000000009c .L0 
     /tmp/ccCe5sCq.s:179    .text:00000000000000a0 .L0 
     /tmp/ccCe5sCq.s:180    .text:00000000000000a0 .L0 
     /tmp/ccCe5sCq.s:184    .text:00000000000000a4 .L0 
     /tmp/ccCe5sCq.s:185    .text:00000000000000a4 .L0 
     /tmp/ccCe5sCq.s:186    .text:00000000000000a4 .L0 
     /tmp/ccCe5sCq.s:190    .text:00000000000000ac .L0 
     /tmp/ccCe5sCq.s:196    .text:00000000000000c4 .L0 
     /tmp/ccCe5sCq.s:202    .text:00000000000000d4 .L0 
     /tmp/ccCe5sCq.s:204    .text:00000000000000d8 .L0 
     /tmp/ccCe5sCq.s:207    .text:00000000000000dc .L0 
     /tmp/ccCe5sCq.s:212    .text:00000000000000e4 .L0 
     /tmp/ccCe5sCq.s:213    .text:00000000000000e4 .L0 
     /tmp/ccCe5sCq.s:217    .text:00000000000000ec .L0 
     /tmp/ccCe5sCq.s:218    .text:00000000000000ec .L0 
     /tmp/ccCe5sCq.s:226    .text:0000000000000104 .L0 
     /tmp/ccCe5sCq.s:227    .text:0000000000000104 .L0 
     /tmp/ccCe5sCq.s:230    .text:0000000000000108 .L0 
     /tmp/ccCe5sCq.s:236    .text:0000000000000110 .L0 
  src/../h/riscv.hpp:135    .text:0000000000000110 .L0 
     /tmp/ccCe5sCq.s:246    .text:0000000000000114 .L0 
     /tmp/ccCe5sCq.s:247    .text:0000000000000118 .L0 
     /tmp/ccCe5sCq.s:249    .text:000000000000011c .L0 
     /tmp/ccCe5sCq.s:250    .text:000000000000011c .L0 
     /tmp/ccCe5sCq.s:252    .text:0000000000000120 .L0 
     /tmp/ccCe5sCq.s:254    .text:0000000000000124 .L0 
     /tmp/ccCe5sCq.s:256    .text:0000000000000128 .L0 
     /tmp/ccCe5sCq.s:258    .text:000000000000012c .L0 
     /tmp/ccCe5sCq.s:269    .text:000000000000012c _Z9printLinePKcm
     /tmp/ccCe5sCq.s:272    .text:000000000000012c .L0 
     /tmp/ccCe5sCq.s:274    .text:000000000000012c .L0 
     /tmp/ccCe5sCq.s:275    .text:0000000000000130 .L0 
     /tmp/ccCe5sCq.s:279    .text:000000000000013c .L0 
     /tmp/ccCe5sCq.s:280    .text:000000000000013c .L0 
     /tmp/ccCe5sCq.s:281    .text:000000000000013c .L0 
     /tmp/ccCe5sCq.s:283    .text:0000000000000140 .L0 
     /tmp/ccCe5sCq.s:286    .text:0000000000000144 .L0 
     /tmp/ccCe5sCq.s:287    .text:0000000000000144 .L0 
     /tmp/ccCe5sCq.s:290    .text:000000000000014c .L0 
     /tmp/ccCe5sCq.s:291    .text:000000000000014c .L0 
     /tmp/ccCe5sCq.s:295    .text:0000000000000158 .L0 
     /tmp/ccCe5sCq.s:296    .text:0000000000000158 .L0 
     /tmp/ccCe5sCq.s:300    .text:0000000000000168 .L0 
     /tmp/ccCe5sCq.s:301    .text:000000000000016c .L0 
     /tmp/ccCe5sCq.s:303    .text:0000000000000170 .L0 
     /tmp/ccCe5sCq.s:304    .text:0000000000000170 .L0 
     /tmp/ccCe5sCq.s:306    .text:0000000000000174 .L0 
GAS LISTING /tmp/ccCe5sCq.s 			page 13


     /tmp/ccCe5sCq.s:309    .text:0000000000000178 .L0 
     /tmp/ccCe5sCq.s:311    .text:000000000000017c .L0 
     /tmp/ccCe5sCq.s:316    .rodata:0000000000000000 .LANCHOR0
     /tmp/ccCe5sCq.s:319    .rodata:0000000000000000 _ZZ12printIntegermE6digits
     /tmp/ccCe5sCq.s:325    .text:000000000000017c .L0 
     /tmp/ccCe5sCq.s:192    .text:00000000000000b4 .L0 
     /tmp/ccCe5sCq.s:263    .rodata.str1.8:0000000000000000 .LC0
     /tmp/ccCe5sCq.s:296    .text:0000000000000158 .L0 
     /tmp/ccCe5sCq.s:78     .text:0000000000000048 .L2
     /tmp/ccCe5sCq.s:59     .text:0000000000000030 .L3
     /tmp/ccCe5sCq.s:182    .text:00000000000000a4 .L6
     /tmp/ccCe5sCq.s:224    .text:0000000000000104 .L7
     /tmp/ccCe5sCq.s:210    .text:00000000000000e4 .L8
     /tmp/ccCe5sCq.s:996    .debug_abbrev:0000000000000000 .Ldebug_abbrev0
     /tmp/ccCe5sCq.s:1810   .debug_str:000000000000021b .LASF73
     /tmp/ccCe5sCq.s:1772   .debug_str:00000000000000f7 .LASF74
     /tmp/ccCe5sCq.s:1778   .debug_str:0000000000000124 .LASF75
     /tmp/ccCe5sCq.s:5      .text:0000000000000000 .Ltext0
     /tmp/ccCe5sCq.s:322    .text:000000000000017c .Letext0
     /tmp/ccCe5sCq.s:1732   .debug_line:0000000000000000 .Ldebug_line0
     /tmp/ccCe5sCq.s:1824   .debug_str:0000000000000334 .LASF0
     /tmp/ccCe5sCq.s:1818   .debug_str:00000000000002fb .LASF3
     /tmp/ccCe5sCq.s:1798   .debug_str:00000000000001c3 .LASF1
     /tmp/ccCe5sCq.s:1788   .debug_str:0000000000000180 .LASF2
     /tmp/ccCe5sCq.s:1754   .debug_str:000000000000007d .LASF4
     /tmp/ccCe5sCq.s:1794   .debug_str:00000000000001a9 .LASF5
     /tmp/ccCe5sCq.s:1740   .debug_str:000000000000002d .LASF6
     /tmp/ccCe5sCq.s:1736   .debug_str:0000000000000013 .LASF7
     /tmp/ccCe5sCq.s:1860   .debug_str:000000000000046b .LASF8
     /tmp/ccCe5sCq.s:1838   .debug_str:0000000000000388 .LASF9
     /tmp/ccCe5sCq.s:1750   .debug_str:000000000000006a .LASF10
     /tmp/ccCe5sCq.s:1894   .debug_str:000000000000054c .LASF11
     /tmp/ccCe5sCq.s:1782   .debug_str:0000000000000152 .LASF12
     /tmp/ccCe5sCq.s:1878   .debug_str:00000000000004df .LASF13
     /tmp/ccCe5sCq.s:1850   .debug_str:0000000000000402 .LASF14
     /tmp/ccCe5sCq.s:1800   .debug_str:00000000000001d6 .LASF15
     /tmp/ccCe5sCq.s:1768   .debug_str:00000000000000db .LASF16
     /tmp/ccCe5sCq.s:1842   .debug_str:00000000000003aa .LASF17
     /tmp/ccCe5sCq.s:1770   .debug_str:00000000000000f1 .LASF76
     /tmp/ccCe5sCq.s:1880   .debug_str:00000000000004ef .LASF77
     /tmp/ccCe5sCq.s:1836   .debug_str:000000000000037c .LASF18
     /tmp/ccCe5sCq.s:1804   .debug_str:00000000000001fc .LASF19
     /tmp/ccCe5sCq.s:1862   .debug_str:000000000000047e .LASF20
     /tmp/ccCe5sCq.s:1776   .debug_str:0000000000000116 .LASF21
     /tmp/ccCe5sCq.s:1760   .debug_str:00000000000000a1 .LASF23
     /tmp/ccCe5sCq.s:1854   .debug_str:0000000000000434 .LASF22
     /tmp/ccCe5sCq.s:1802   .debug_str:00000000000001e2 .LASF24
     /tmp/ccCe5sCq.s:1806   .debug_str:0000000000000209 .LASF25
     /tmp/ccCe5sCq.s:1868   .debug_str:000000000000049d .LASF26
     /tmp/ccCe5sCq.s:1812   .debug_str:00000000000002df .LASF27
     /tmp/ccCe5sCq.s:1742   .debug_str:0000000000000034 .LASF29
     /tmp/ccCe5sCq.s:1814   .debug_str:00000000000002e8 .LASF31
     /tmp/ccCe5sCq.s:1756   .debug_str:0000000000000084 .LASF33
     /tmp/ccCe5sCq.s:1828   .debug_str:0000000000000349 .LASF28
     /tmp/ccCe5sCq.s:1792   .debug_str:0000000000000196 .LASF30
     /tmp/ccCe5sCq.s:1766   .debug_str:00000000000000d4 .LASF32
     /tmp/ccCe5sCq.s:1780   .debug_str:000000000000013f .LASF34
GAS LISTING /tmp/ccCe5sCq.s 			page 14


     /tmp/ccCe5sCq.s:1826   .debug_str:0000000000000341 .LASF35
     /tmp/ccCe5sCq.s:1858   .debug_str:0000000000000457 .LASF36
     /tmp/ccCe5sCq.s:1796   .debug_str:00000000000001bb .LASF37
     /tmp/ccCe5sCq.s:1834   .debug_str:0000000000000368 .LASF38
     /tmp/ccCe5sCq.s:1870   .debug_str:00000000000004b5 .LASF39
     /tmp/ccCe5sCq.s:1746   .debug_str:0000000000000050 .LASF40
     /tmp/ccCe5sCq.s:1790   .debug_str:000000000000018e .LASF41
     /tmp/ccCe5sCq.s:1848   .debug_str:00000000000003ee .LASF42
     /tmp/ccCe5sCq.s:1888   .debug_str:000000000000052a .LASF43
     /tmp/ccCe5sCq.s:1734   .debug_str:0000000000000000 .LASF44
     /tmp/ccCe5sCq.s:1744   .debug_str:0000000000000049 .LASF45
     /tmp/ccCe5sCq.s:1832   .debug_str:0000000000000355 .LASF46
     /tmp/ccCe5sCq.s:1876   .debug_str:00000000000004d9 .LASF47
     /tmp/ccCe5sCq.s:1840   .debug_str:0000000000000398 .LASF48
     /tmp/ccCe5sCq.s:1748   .debug_str:0000000000000064 .LASF49
     /tmp/ccCe5sCq.s:1874   .debug_str:00000000000004c7 .LASF50
     /tmp/ccCe5sCq.s:1866   .debug_str:0000000000000492 .LASF51
     /tmp/ccCe5sCq.s:1820   .debug_str:0000000000000300 .LASF52
     /tmp/ccCe5sCq.s:1762   .debug_str:00000000000000bc .LASF53
     /tmp/ccCe5sCq.s:1844   .debug_str:00000000000003c0 .LASF54
     /tmp/ccCe5sCq.s:1816   .debug_str:00000000000002f1 .LASF55
     /tmp/ccCe5sCq.s:1846   .debug_str:00000000000003d8 .LASF56
     /tmp/ccCe5sCq.s:1872   .debug_str:00000000000004bd .LASF57
     /tmp/ccCe5sCq.s:1856   .debug_str:0000000000000441 .LASF58
     /tmp/ccCe5sCq.s:1890   .debug_str:0000000000000531 .LASF59
     /tmp/ccCe5sCq.s:1822   .debug_str:0000000000000318 .LASF60
     /tmp/ccCe5sCq.s:1786   .debug_str:000000000000016b .LASF78
     /tmp/ccCe5sCq.s:1852   .debug_str:0000000000000412 .LASF79
     /tmp/ccCe5sCq.s:1784   .debug_str:0000000000000161 .LASF64
     /tmp/ccCe5sCq.s:1774   .debug_str:0000000000000105 .LASF66
     /tmp/ccCe5sCq.s:270    .text:000000000000012c .LFB18
     /tmp/ccCe5sCq.s:312    .text:000000000000017c .LFE18
     /tmp/ccCe5sCq.s:1886   .debug_str:0000000000000523 .LASF61
     /tmp/ccCe5sCq.s:1574   .debug_loc:0000000000000000 .LLST10
     /tmp/ccCe5sCq.s:1758   .debug_str:0000000000000099 .LASF62
     /tmp/ccCe5sCq.s:1588   .debug_loc:0000000000000039 .LLST11
     /tmp/ccCe5sCq.s:288    .text:000000000000014c .LVL24
     /tmp/ccCe5sCq.s:293    .text:0000000000000158 .LVL25
     /tmp/ccCe5sCq.s:298    .text:0000000000000168 .LVL26
     /tmp/ccCe5sCq.s:1830   .debug_str:0000000000000350 .LASF63
     /tmp/ccCe5sCq.s:1764   .debug_str:00000000000000c7 .LASF65
     /tmp/ccCe5sCq.s:1884   .debug_str:0000000000000511 .LASF67
     /tmp/ccCe5sCq.s:120    .text:0000000000000070 .LFB17
     /tmp/ccCe5sCq.s:259    .text:000000000000012c .LFE17
     /tmp/ccCe5sCq.s:1606   .debug_loc:0000000000000085 .LLST4
     /tmp/ccCe5sCq.s:1864   .debug_str:000000000000048a .LASF68
     /tmp/ccCe5sCq.s:1620   .debug_loc:00000000000000be .LLST5
     /tmp/ccCe5sCq.s:1738   .debug_str:0000000000000026 .LASF69
     /tmp/ccCe5sCq.s:1627   .debug_loc:00000000000000e1 .LLST6
     /tmp/ccCe5sCq.s:1649   .debug_loc:0000000000000140 .LLST7
     /tmp/ccCe5sCq.s:137    .text:0000000000000088 .LBB20
     /tmp/ccCe5sCq.s:153    .text:0000000000000094 .LBE20
     /tmp/ccCe5sCq.s:155    .text:0000000000000094 .LBB22
     /tmp/ccCe5sCq.s:167    .text:000000000000009c .LBE22
     /tmp/ccCe5sCq.s:1671   .debug_loc:0000000000000181 .LLST8
     /tmp/ccCe5sCq.s:233    .text:0000000000000110 .LBB24
     /tmp/ccCe5sCq.s:244    .text:0000000000000114 .LBE24
GAS LISTING /tmp/ccCe5sCq.s 			page 15


     /tmp/ccCe5sCq.s:1679   .debug_loc:00000000000001a5 .LLST9
     /tmp/ccCe5sCq.s:222    .text:0000000000000100 .LVL19
     /tmp/ccCe5sCq.s:1892   .debug_str:0000000000000540 .LASF70
     /tmp/ccCe5sCq.s:1882   .debug_str:00000000000004fe .LASF71
     /tmp/ccCe5sCq.s:10     .text:0000000000000000 .LFB16
     /tmp/ccCe5sCq.s:114    .text:0000000000000070 .LFE16
     /tmp/ccCe5sCq.s:1686   .debug_loc:00000000000001c8 .LLST0
     /tmp/ccCe5sCq.s:1697   .debug_loc:00000000000001fe .LLST1
     /tmp/ccCe5sCq.s:29     .text:000000000000001c .LBB14
     /tmp/ccCe5sCq.s:46     .text:0000000000000028 .LBE14
     /tmp/ccCe5sCq.s:48     .text:0000000000000028 .LBB16
     /tmp/ccCe5sCq.s:61     .text:0000000000000030 .LBE16
     /tmp/ccCe5sCq.s:1704   .debug_loc:0000000000000221 .LLST2
     /tmp/ccCe5sCq.s:87     .text:0000000000000054 .LBB18
     /tmp/ccCe5sCq.s:98     .text:0000000000000058 .LBE18
     /tmp/ccCe5sCq.s:1712   .debug_loc:0000000000000245 .LLST3
     /tmp/ccCe5sCq.s:71     .text:0000000000000040 .LVL3
     /tmp/ccCe5sCq.s:1752   .debug_str:0000000000000078 .LASF72
     /tmp/ccCe5sCq.s:1808   .debug_str:0000000000000214 .LASF80
     /tmp/ccCe5sCq.s:273    .text:000000000000012c .LVL23
     /tmp/ccCe5sCq.s:307    .text:0000000000000174 .LVL27
     /tmp/ccCe5sCq.s:123    .text:0000000000000070 .LVL9
     /tmp/ccCe5sCq.s:177    .text:00000000000000a0 .LVL12
     /tmp/ccCe5sCq.s:151    .text:0000000000000094 .LVL10
     /tmp/ccCe5sCq.s:228    .text:0000000000000108 .LVL20
     /tmp/ccCe5sCq.s:181    .text:00000000000000a4 .LVL13
     /tmp/ccCe5sCq.s:188    .text:00000000000000ac .LVL14
     /tmp/ccCe5sCq.s:199    .text:00000000000000d0 .LVL15
     /tmp/ccCe5sCq.s:209    .text:00000000000000e4 .LVL17
     /tmp/ccCe5sCq.s:214    .text:00000000000000e8 .LVL18
     /tmp/ccCe5sCq.s:205    .text:00000000000000dc .LVL16
     /tmp/ccCe5sCq.s:164    .text:000000000000009c .LVL11
     /tmp/ccCe5sCq.s:232    .text:0000000000000110 .LVL21
     /tmp/ccCe5sCq.s:241    .text:0000000000000114 .LVL22
     /tmp/ccCe5sCq.s:14     .text:0000000000000000 .LVL0
     /tmp/ccCe5sCq.s:57     .text:0000000000000030 .LVL2
     /tmp/ccCe5sCq.s:107    .text:0000000000000064 .LVL8
     /tmp/ccCe5sCq.s:44     .text:0000000000000028 .LVL1
     /tmp/ccCe5sCq.s:82     .text:000000000000004c .LVL5
     /tmp/ccCe5sCq.s:86     .text:0000000000000054 .LVL6
     /tmp/ccCe5sCq.s:95     .text:0000000000000058 .LVL7
     /tmp/ccCe5sCq.s:326    .debug_info:0000000000000000 .Ldebug_info0

UNDEFINED SYMBOLS
__putc
