GAS LISTING /tmp/ccBwTfwM.s 			page 1


   1              		.file	"scheduler.cpp"
   2              		.option nopic
   3              		.option norelax
   4              		.attribute arch, "rv64i2p0_m2p0_a2p0"
   5              		.attribute unaligned_access, 0
   6              		.attribute stack_align, 16
   7              		.text
   8              	.Ltext0:
   9              		.align	2
  11              	_Z41__static_initialization_and_destruction_0ii:
  12              	.LFB18:
  13              		.file 1 "src/scheduler.cpp"
   1:src/scheduler.cpp **** #include "../h/scheduler.hpp"
   2:src/scheduler.cpp **** 
   3:src/scheduler.cpp **** List<CCB> Scheduler::readyCoroutineQueue;
   4:src/scheduler.cpp **** 
   5:src/scheduler.cpp **** CCB *Scheduler::get() { return readyCoroutineQueue.removeFirst(); }
   6:src/scheduler.cpp **** void Scheduler::put(CCB *ccb) { readyCoroutineQueue.addLast(ccb); }...
  14              		.loc 1 6 67
  15              		.cfi_startproc
  16              	.LVL0:
  17 0000 130101FF 		addi	sp,sp,-16
  18              		.cfi_def_cfa_offset 16
  19 0004 23348100 		sd	s0,8(sp)
  20              		.cfi_offset 8, -8
  21 0008 13040101 		addi	s0,sp,16
  22              		.cfi_def_cfa 8, 0
  23              		.loc 1 6 67 is_stmt 0
  24 000c 93071000 		li	a5,1
  25 0010 6308F500 		beq	a0,a5,.L4
  26              	.L1:
  27 0014 03348100 		ld	s0,8(sp)
  28              		.cfi_remember_state
  29              		.cfi_restore 8
  30              		.cfi_def_cfa 2, 16
  31 0018 13010101 		addi	sp,sp,16
  32              		.cfi_def_cfa_offset 0
  33 001c 67800000 		jr	ra
  34              	.L4:
  35              		.cfi_restore_state
  36              		.loc 1 6 67 discriminator 1
  37 0020 B7070100 		li	a5,65536
  38 0024 9387F7FF 		addi	a5,a5,-1
  39 0028 E396F5FE 		bne	a1,a5,.L1
  40              	.LVL1:
  41              	.LBB15:
  42              	.LBB16:
  43              	.LBB17:
  44              		.file 2 "src/../h/list.hpp"
   1:src/../h/list.hpp **** #ifndef list_hpp
   2:src/../h/list.hpp **** #define list_hpp
   3:src/../h/list.hpp **** // Vezbe 7
   4:src/../h/list.hpp **** template <typename T> class List {
   5:src/../h/list.hpp **** 
   6:src/../h/list.hpp **** private:
   7:src/../h/list.hpp ****   struct Elem {
   8:src/../h/list.hpp ****     T *data;
GAS LISTING /tmp/ccBwTfwM.s 			page 2


   9:src/../h/list.hpp ****     Elem *next;
  10:src/../h/list.hpp **** 
  11:src/../h/list.hpp ****     Elem(T *data, Elem *next) : data(data), next(next) {}
  12:src/../h/list.hpp ****   };
  13:src/../h/list.hpp ****   Elem *head, *tail;
  14:src/../h/list.hpp **** 
  15:src/../h/list.hpp **** public:
  16:src/../h/list.hpp ****   List() : head(0), tail(0) {}
  45              		.loc 2 16 27
  46 002c 97070000 		lla	a5,.LANCHOR0
  46      93870700 
  47 0034 23B00700 		sd	zero,0(a5)
  48 0038 23B40700 		sd	zero,8(a5)
  49              	.LVL2:
  50              	.LBE17:
  51              	.LBE16:
  52              	.LBE15:
  53              		.loc 1 6 67
  54 003c 6FF09FFD 		j	.L1
  55              		.cfi_endproc
  56              	.LFE18:
  58              		.align	2
  59              		.globl	_ZN9Scheduler3getEv
  61              	_ZN9Scheduler3getEv:
  62              	.LFB8:
   5:src/scheduler.cpp **** CCB *Scheduler::get() { return readyCoroutineQueue.removeFirst(); }
  63              		.loc 1 5 23 is_stmt 1
  64              		.cfi_startproc
  65 0040 130101FE 		addi	sp,sp,-32
  66              		.cfi_def_cfa_offset 32
  67 0044 233C1100 		sd	ra,24(sp)
  68 0048 23388100 		sd	s0,16(sp)
  69 004c 23349100 		sd	s1,8(sp)
  70              		.cfi_offset 1, -8
  71              		.cfi_offset 8, -16
  72              		.cfi_offset 9, -24
  73 0050 13040102 		addi	s0,sp,32
  74              		.cfi_def_cfa 8, 0
   5:src/scheduler.cpp **** CCB *Scheduler::get() { return readyCoroutineQueue.removeFirst(); }
  75              		.loc 1 5 25
  76              	.LVL3:
  77              	.LBB18:
  78              	.LBB19:
  17:src/../h/list.hpp ****   List(const List<T> &) = delete;
  18:src/../h/list.hpp ****   List<T> &operator=(const List<T> &) = delete;
  19:src/../h/list.hpp **** 
  20:src/../h/list.hpp ****   void addFirst(T *data) {
  21:src/../h/list.hpp ****     Elem *elem = new Elem(data, head);
  22:src/../h/list.hpp ****     head = elem;
  23:src/../h/list.hpp ****     if (!tail) {
  24:src/../h/list.hpp ****       tail = head;
  25:src/../h/list.hpp ****     }
  26:src/../h/list.hpp ****   }
  27:src/../h/list.hpp ****   void addLast(T *data) {
  28:src/../h/list.hpp ****     Elem *elem = new Elem(data, 0);
  29:src/../h/list.hpp ****     if (tail) {
  30:src/../h/list.hpp ****       tail->next = elem;
GAS LISTING /tmp/ccBwTfwM.s 			page 3


  31:src/../h/list.hpp ****       tail = elem;
  32:src/../h/list.hpp ****     } else {
  33:src/../h/list.hpp ****       head = tail = elem;
  34:src/../h/list.hpp ****     }
  35:src/../h/list.hpp ****   }
  36:src/../h/list.hpp ****   T *removeFirst() {
  37:src/../h/list.hpp ****     if (!head) {
  79              		.loc 2 37 10 is_stmt 0
  80 0054 17050000 		ld	a0,.LANCHOR0
  80      03350500 
  81              		.loc 2 37 5
  82 005c 63020504 		beqz	a0,.L8
  83              	.LVL4:
  38:src/../h/list.hpp ****       return 0;
  39:src/../h/list.hpp ****     }
  40:src/../h/list.hpp ****     Elem *elem = head;
  41:src/../h/list.hpp ****     head = head->next;
  84              		.loc 2 41 18
  85 0060 83378500 		ld	a5,8(a0)
  86              		.loc 2 41 5
  87 0064 17070000 		sd	a5,.LANCHOR0,a4
  87      2330F700 
  42:src/../h/list.hpp ****     if (!head) {
  88              		.loc 2 42 5
  89 006c 63840702 		beqz	a5,.L10
  90              	.L7:
  43:src/../h/list.hpp ****       tail = 0;
  44:src/../h/list.hpp ****     }
  45:src/../h/list.hpp ****     T *ret = elem->data;
  91              		.loc 2 45 8
  92 0070 83340500 		ld	s1,0(a0)
  93              	.LVL5:
  46:src/../h/list.hpp ****     delete elem;
  94              		.loc 2 46 5
  95 0074 97000000 		call	_ZdlPv
  95      E7800000 
  96              	.LVL6:
  97              	.L5:
  98              	.LBE19:
  99              	.LBE18:
   5:src/scheduler.cpp **** CCB *Scheduler::get() { return readyCoroutineQueue.removeFirst(); }
 100              		.loc 1 5 67
 101 007c 13850400 		mv	a0,s1
 102 0080 83308101 		ld	ra,24(sp)
 103              		.cfi_remember_state
 104              		.cfi_restore 1
 105 0084 03340101 		ld	s0,16(sp)
 106              		.cfi_restore 8
 107              		.cfi_def_cfa 2, 32
 108 0088 83348100 		ld	s1,8(sp)
 109              		.cfi_restore 9
 110 008c 13010102 		addi	sp,sp,32
 111              		.cfi_def_cfa_offset 0
 112 0090 67800000 		jr	ra
 113              	.LVL7:
 114              	.L10:
 115              		.cfi_restore_state
GAS LISTING /tmp/ccBwTfwM.s 			page 4


 116              	.LBB21:
 117              	.LBB20:
  43:src/../h/list.hpp ****       tail = 0;
 118              		.loc 2 43 7
 119 0094 97070000 		sd	zero,.LANCHOR0+8,a5
 119      23B00700 
 120 009c 6FF05FFD 		j	.L7
 121              	.LVL8:
 122              	.L8:
  38:src/../h/list.hpp ****     }
 123              		.loc 2 38 14
 124 00a0 93040500 		mv	s1,a0
 125              	.LVL9:
 126              	.LBE20:
 127              	.LBE21:
   5:src/scheduler.cpp **** CCB *Scheduler::get() { return readyCoroutineQueue.removeFirst(); }
 128              		.loc 1 5 64
 129 00a4 6FF09FFD 		j	.L5
 130              		.cfi_endproc
 131              	.LFE8:
 133              		.align	2
 134              		.globl	_ZN9Scheduler3putEP3CCB
 136              	_ZN9Scheduler3putEP3CCB:
 137              	.LFB9:
 138              		.loc 1 6 31 is_stmt 1
 139              		.cfi_startproc
 140              	.LVL10:
 141 00a8 130101FE 		addi	sp,sp,-32
 142              		.cfi_def_cfa_offset 32
 143 00ac 233C1100 		sd	ra,24(sp)
 144 00b0 23388100 		sd	s0,16(sp)
 145 00b4 23349100 		sd	s1,8(sp)
 146              		.cfi_offset 1, -8
 147              		.cfi_offset 8, -16
 148              		.cfi_offset 9, -24
 149 00b8 13040102 		addi	s0,sp,32
 150              		.cfi_def_cfa 8, 0
 151 00bc 93040500 		mv	s1,a0
 152              		.loc 1 6 33
 153              	.LVL11:
 154              	.LBB22:
 155              	.LBB23:
  28:src/../h/list.hpp ****     if (tail) {
 156              		.loc 2 28 18 is_stmt 0
 157 00c0 13050001 		li	a0,16
 158              	.LVL12:
 159 00c4 97000000 		call	_Znwm
 159      E7800000 
 160              	.LVL13:
 161              	.LBB24:
 162              	.LBB25:
  11:src/../h/list.hpp ****   };
 163              		.loc 2 11 54
 164 00cc 23309500 		sd	s1,0(a0)
 165 00d0 23340500 		sd	zero,8(a0)
 166              	.LVL14:
 167              	.LBE25:
GAS LISTING /tmp/ccBwTfwM.s 			page 5


 168              	.LBE24:
  29:src/../h/list.hpp ****       tail->next = elem;
 169              		.loc 2 29 9
 170 00d4 97070000 		ld	a5,.LANCHOR0+8
 170      83B70700 
  29:src/../h/list.hpp ****       tail->next = elem;
 171              		.loc 2 29 5
 172 00dc 63820702 		beqz	a5,.L12
  30:src/../h/list.hpp ****       tail = elem;
 173              		.loc 2 30 7
 174 00e0 23B4A700 		sd	a0,8(a5)
  31:src/../h/list.hpp ****     } else {
 175              		.loc 2 31 7
 176 00e4 97070000 		sd	a0,.LANCHOR0+8,a5
 176      23B0A700 
 177              	.LVL15:
 178              	.L11:
 179              	.LBE23:
 180              	.LBE22:
 181              		.loc 1 6 67
 182 00ec 83308101 		ld	ra,24(sp)
 183              		.cfi_remember_state
 184              		.cfi_restore 1
 185 00f0 03340101 		ld	s0,16(sp)
 186              		.cfi_restore 8
 187              		.cfi_def_cfa 2, 32
 188 00f4 83348100 		ld	s1,8(sp)
 189              		.cfi_restore 9
 190              	.LVL16:
 191 00f8 13010102 		addi	sp,sp,32
 192              		.cfi_def_cfa_offset 0
 193 00fc 67800000 		jr	ra
 194              	.LVL17:
 195              	.L12:
 196              		.cfi_restore_state
 197              	.LBB27:
 198              	.LBB26:
  33:src/../h/list.hpp ****     }
 199              		.loc 2 33 7
 200 0100 97070000 		lla	a5,.LANCHOR0
 200      93870700 
 201 0108 23B4A700 		sd	a0,8(a5)
 202 010c 23B0A700 		sd	a0,0(a5)
 203              	.LVL18:
 204              	.LBE26:
 205              	.LBE27:
 206              		.loc 1 6 67
 207 0110 6FF0DFFD 		j	.L11
 208              		.cfi_endproc
 209              	.LFE9:
 211              		.align	2
 213              	_GLOBAL__sub_I__ZN9Scheduler19readyCoroutineQueueE:
 214              	.LFB19:
 215              		.loc 1 6 67 is_stmt 1
 216              		.cfi_startproc
 217 0114 130101FF 		addi	sp,sp,-16
 218              		.cfi_def_cfa_offset 16
GAS LISTING /tmp/ccBwTfwM.s 			page 6


 219 0118 23341100 		sd	ra,8(sp)
 220 011c 23308100 		sd	s0,0(sp)
 221              		.cfi_offset 1, -8
 222              		.cfi_offset 8, -16
 223 0120 13040101 		addi	s0,sp,16
 224              		.cfi_def_cfa 8, 0
 225              		.loc 1 6 67 is_stmt 0
 226 0124 B7050100 		li	a1,65536
 227 0128 9385F5FF 		addi	a1,a1,-1
 228 012c 13051000 		li	a0,1
 229 0130 97000000 		call	_Z41__static_initialization_and_destruction_0ii
 229      E7800000 
 230              	.LVL19:
 231 0138 83308100 		ld	ra,8(sp)
 232              		.cfi_restore 1
 233 013c 03340100 		ld	s0,0(sp)
 234              		.cfi_restore 8
 235              		.cfi_def_cfa 2, 16
 236 0140 13010101 		addi	sp,sp,16
 237              		.cfi_def_cfa_offset 0
 238 0144 67800000 		jr	ra
 239              		.cfi_endproc
 240              	.LFE19:
 242              		.section	.init_array,"aw"
 243              		.align	3
 244 0000 00000000 		.dword	_GLOBAL__sub_I__ZN9Scheduler19readyCoroutineQueueE
 244      00000000 
 245              		.globl	_ZN9Scheduler19readyCoroutineQueueE
 246              		.bss
 247              		.align	3
 248              		.set	.LANCHOR0,. + 0
 251              	_ZN9Scheduler19readyCoroutineQueueE:
 252 0000 00000000 		.zero	16
 252      00000000 
 252      00000000 
 252      00000000 
 253              		.text
 254              	.Letext0:
 255              		.file 3 "src/../h/scheduler.hpp"
GAS LISTING /tmp/ccBwTfwM.s 			page 7


DEFINED SYMBOLS
                            *ABS*:0000000000000000 scheduler.cpp
     /tmp/ccBwTfwM.s:11     .text:0000000000000000 _Z41__static_initialization_and_destruction_0ii
     /tmp/ccBwTfwM.s:15     .text:0000000000000000 .L0 
     /tmp/ccBwTfwM.s:17     .text:0000000000000000 .L0 
     /tmp/ccBwTfwM.s:18     .text:0000000000000004 .L0 
     /tmp/ccBwTfwM.s:20     .text:0000000000000008 .L0 
     /tmp/ccBwTfwM.s:22     .text:000000000000000c .L0 
     /tmp/ccBwTfwM.s:24     .text:000000000000000c .L0 
     /tmp/ccBwTfwM.s:28     .text:0000000000000018 .L0 
     /tmp/ccBwTfwM.s:29     .text:0000000000000018 .L0 
     /tmp/ccBwTfwM.s:30     .text:0000000000000018 .L0 
     /tmp/ccBwTfwM.s:32     .text:000000000000001c .L0 
     /tmp/ccBwTfwM.s:35     .text:0000000000000020 .L0 
     /tmp/ccBwTfwM.s:37     .text:0000000000000020 .L0 
     /tmp/ccBwTfwM.s:46     .text:000000000000002c .L0 
     /tmp/ccBwTfwM.s:54     .text:000000000000003c .L0 
     /tmp/ccBwTfwM.s:55     .text:0000000000000040 .L0 
     /tmp/ccBwTfwM.s:61     .text:0000000000000040 _ZN9Scheduler3getEv
     /tmp/ccBwTfwM.s:64     .text:0000000000000040 .L0 
     /tmp/ccBwTfwM.s:65     .text:0000000000000040 .L0 
     /tmp/ccBwTfwM.s:66     .text:0000000000000044 .L0 
     /tmp/ccBwTfwM.s:70     .text:0000000000000050 .L0 
     /tmp/ccBwTfwM.s:71     .text:0000000000000050 .L0 
     /tmp/ccBwTfwM.s:72     .text:0000000000000050 .L0 
     /tmp/ccBwTfwM.s:74     .text:0000000000000054 .L0 
     /tmp/ccBwTfwM.s:79     .text:0000000000000054 .L0 
     /tmp/ccBwTfwM.s:80     .text:0000000000000054 .L0 
     /tmp/ccBwTfwM.s:82     .text:000000000000005c .L0 
     /tmp/ccBwTfwM.s:85     .text:0000000000000060 .L0 
     /tmp/ccBwTfwM.s:87     .text:0000000000000064 .L0 
     /tmp/ccBwTfwM.s:89     .text:000000000000006c .L0 
     /tmp/ccBwTfwM.s:92     .text:0000000000000070 .L0 
     /tmp/ccBwTfwM.s:95     .text:0000000000000074 .L0 
     /tmp/ccBwTfwM.s:101    .text:000000000000007c .L0 
     /tmp/ccBwTfwM.s:103    .text:0000000000000084 .L0 
     /tmp/ccBwTfwM.s:104    .text:0000000000000084 .L0 
     /tmp/ccBwTfwM.s:106    .text:0000000000000088 .L0 
     /tmp/ccBwTfwM.s:107    .text:0000000000000088 .L0 
     /tmp/ccBwTfwM.s:109    .text:000000000000008c .L0 
     /tmp/ccBwTfwM.s:111    .text:0000000000000090 .L0 
     /tmp/ccBwTfwM.s:115    .text:0000000000000094 .L0 
     /tmp/ccBwTfwM.s:119    .text:0000000000000094 .L0 
     /tmp/ccBwTfwM.s:124    .text:00000000000000a0 .L0 
     /tmp/ccBwTfwM.s:129    .text:00000000000000a4 .L0 
     /tmp/ccBwTfwM.s:130    .text:00000000000000a8 .L0 
     /tmp/ccBwTfwM.s:136    .text:00000000000000a8 _ZN9Scheduler3putEP3CCB
     /tmp/ccBwTfwM.s:139    .text:00000000000000a8 .L0 
     /tmp/ccBwTfwM.s:141    .text:00000000000000a8 .L0 
     /tmp/ccBwTfwM.s:142    .text:00000000000000ac .L0 
     /tmp/ccBwTfwM.s:146    .text:00000000000000b8 .L0 
     /tmp/ccBwTfwM.s:147    .text:00000000000000b8 .L0 
     /tmp/ccBwTfwM.s:148    .text:00000000000000b8 .L0 
     /tmp/ccBwTfwM.s:150    .text:00000000000000bc .L0 
     /tmp/ccBwTfwM.s:156    .text:00000000000000c0 .L0 
     /tmp/ccBwTfwM.s:157    .text:00000000000000c0 .L0 
     /tmp/ccBwTfwM.s:164    .text:00000000000000cc .L0 
GAS LISTING /tmp/ccBwTfwM.s 			page 8


     /tmp/ccBwTfwM.s:170    .text:00000000000000d4 .L0 
     /tmp/ccBwTfwM.s:172    .text:00000000000000dc .L0 
     /tmp/ccBwTfwM.s:174    .text:00000000000000e0 .L0 
     /tmp/ccBwTfwM.s:176    .text:00000000000000e4 .L0 
     /tmp/ccBwTfwM.s:182    .text:00000000000000ec .L0 
     /tmp/ccBwTfwM.s:183    .text:00000000000000f0 .L0 
     /tmp/ccBwTfwM.s:184    .text:00000000000000f0 .L0 
     /tmp/ccBwTfwM.s:186    .text:00000000000000f4 .L0 
     /tmp/ccBwTfwM.s:187    .text:00000000000000f4 .L0 
     /tmp/ccBwTfwM.s:189    .text:00000000000000f8 .L0 
     /tmp/ccBwTfwM.s:192    .text:00000000000000fc .L0 
     /tmp/ccBwTfwM.s:196    .text:0000000000000100 .L0 
     /tmp/ccBwTfwM.s:200    .text:0000000000000100 .L0 
     /tmp/ccBwTfwM.s:207    .text:0000000000000110 .L0 
     /tmp/ccBwTfwM.s:208    .text:0000000000000114 .L0 
     /tmp/ccBwTfwM.s:213    .text:0000000000000114 _GLOBAL__sub_I__ZN9Scheduler19readyCoroutineQueueE
     /tmp/ccBwTfwM.s:216    .text:0000000000000114 .L0 
     /tmp/ccBwTfwM.s:217    .text:0000000000000114 .L0 
     /tmp/ccBwTfwM.s:218    .text:0000000000000118 .L0 
     /tmp/ccBwTfwM.s:221    .text:0000000000000120 .L0 
     /tmp/ccBwTfwM.s:222    .text:0000000000000120 .L0 
     /tmp/ccBwTfwM.s:224    .text:0000000000000124 .L0 
     /tmp/ccBwTfwM.s:226    .text:0000000000000124 .L0 
     /tmp/ccBwTfwM.s:232    .text:000000000000013c .L0 
     /tmp/ccBwTfwM.s:234    .text:0000000000000140 .L0 
     /tmp/ccBwTfwM.s:235    .text:0000000000000140 .L0 
     /tmp/ccBwTfwM.s:237    .text:0000000000000144 .L0 
     /tmp/ccBwTfwM.s:239    .text:0000000000000148 .L0 
     /tmp/ccBwTfwM.s:251    .bss:0000000000000000 _ZN9Scheduler19readyCoroutineQueueE
     /tmp/ccBwTfwM.s:248    .bss:0000000000000000 .LANCHOR0
     /tmp/ccBwTfwM.s:256    .text:0000000000000148 .L0 
     /tmp/ccBwTfwM.s:46     .text:000000000000002c .L0 
     /tmp/ccBwTfwM.s:80     .text:0000000000000054 .L0 
     /tmp/ccBwTfwM.s:87     .text:0000000000000064 .L0 
     /tmp/ccBwTfwM.s:119    .text:0000000000000094 .L0 
     /tmp/ccBwTfwM.s:170    .text:00000000000000d4 .L0 
     /tmp/ccBwTfwM.s:176    .text:00000000000000e4 .L0 
     /tmp/ccBwTfwM.s:200    .text:0000000000000100 .L0 
     /tmp/ccBwTfwM.s:34     .text:0000000000000020 .L4
     /tmp/ccBwTfwM.s:26     .text:0000000000000014 .L1
     /tmp/ccBwTfwM.s:122    .text:00000000000000a0 .L8
     /tmp/ccBwTfwM.s:114    .text:0000000000000094 .L10
     /tmp/ccBwTfwM.s:90     .text:0000000000000070 .L7
     /tmp/ccBwTfwM.s:97     .text:000000000000007c .L5
     /tmp/ccBwTfwM.s:195    .text:0000000000000100 .L12
     /tmp/ccBwTfwM.s:178    .text:00000000000000ec .L11
     /tmp/ccBwTfwM.s:778    .debug_abbrev:0000000000000000 .Ldebug_abbrev0
     /tmp/ccBwTfwM.s:1576   .debug_str:0000000000000032 .LASF34
     /tmp/ccBwTfwM.s:1606   .debug_str:00000000000001dc .LASF35
     /tmp/ccBwTfwM.s:1588   .debug_str:000000000000014c .LASF36
     /tmp/ccBwTfwM.s:8      .text:0000000000000000 .Ltext0
     /tmp/ccBwTfwM.s:254    .text:0000000000000148 .Letext0
     /tmp/ccBwTfwM.s:1566   .debug_line:0000000000000000 .Ldebug_line0
     /tmp/ccBwTfwM.s:1596   .debug_str:000000000000018c .LASF0
     /tmp/ccBwTfwM.s:1590   .debug_str:000000000000015e .LASF37
     /tmp/ccBwTfwM.s:1578   .debug_str:00000000000000f6 .LASF38
     /tmp/ccBwTfwM.s:1598   .debug_str:0000000000000196 .LASF39
GAS LISTING /tmp/ccBwTfwM.s 			page 9


     /tmp/ccBwTfwM.s:1628   .debug_str:0000000000000282 .LASF1
     /tmp/ccBwTfwM.s:1636   .debug_str:00000000000002d5 .LASF4
     /tmp/ccBwTfwM.s:1574   .debug_str:000000000000002d .LASF2
     /tmp/ccBwTfwM.s:1570   .debug_str:000000000000000b .LASF3
     /tmp/ccBwTfwM.s:1622   .debug_str:000000000000024d .LASF40
     /tmp/ccBwTfwM.s:1614   .debug_str:000000000000022a .LASF5
     /tmp/ccBwTfwM.s:1642   .debug_str:0000000000000313 .LASF6
     /tmp/ccBwTfwM.s:1618   .debug_str:0000000000000238 .LASF7
     /tmp/ccBwTfwM.s:1608   .debug_str:00000000000001ee .LASF9
     /tmp/ccBwTfwM.s:1584   .debug_str:0000000000000129 .LASF14
     /tmp/ccBwTfwM.s:1648   .debug_str:000000000000033c .LASF41
     /tmp/ccBwTfwM.s:1580   .debug_str:000000000000010a .LASF42
     /tmp/ccBwTfwM.s:1616   .debug_str:000000000000022f .LASF8
     /tmp/ccBwTfwM.s:1646   .debug_str:000000000000031f .LASF10
     /tmp/ccBwTfwM.s:1582   .debug_str:0000000000000121 .LASF11
     /tmp/ccBwTfwM.s:1632   .debug_str:000000000000029f .LASF12
     /tmp/ccBwTfwM.s:1586   .debug_str:0000000000000140 .LASF13
     /tmp/ccBwTfwM.s:1640   .debug_str:00000000000002f5 .LASF15
     /tmp/ccBwTfwM.s:1600   .debug_str:00000000000001ae .LASF16
     /tmp/ccBwTfwM.s:1638   .debug_str:00000000000002da .LASF17
     /tmp/ccBwTfwM.s:1594   .debug_str:0000000000000181 .LASF18
     /tmp/ccBwTfwM.s:1572   .debug_str:0000000000000010 .LASF19
     /tmp/ccBwTfwM.s:1626   .debug_str:0000000000000279 .LASF20
     /tmp/ccBwTfwM.s:1634   .debug_str:00000000000002bb .LASF21
     /tmp/ccBwTfwM.s:1610   .debug_str:0000000000000201 .LASF43
     /tmp/ccBwTfwM.s:1654   .debug_str:0000000000000376 .LASF22
     /tmp/ccBwTfwM.s:214    .text:0000000000000114 .LFB19
     /tmp/ccBwTfwM.s:240    .text:0000000000000148 .LFE19
     /tmp/ccBwTfwM.s:230    .text:0000000000000138 .LVL19
     /tmp/ccBwTfwM.s:1652   .debug_str:000000000000034c .LASF23
     /tmp/ccBwTfwM.s:12     .text:0000000000000000 .LFB18
     /tmp/ccBwTfwM.s:56     .text:0000000000000040 .LFE18
     /tmp/ccBwTfwM.s:1592   .debug_str:0000000000000172 .LASF24
     /tmp/ccBwTfwM.s:1568   .debug_str:0000000000000000 .LASF25
     /tmp/ccBwTfwM.s:41     .text:000000000000002c .LBB15
     /tmp/ccBwTfwM.s:52     .text:000000000000003c .LBE15
     /tmp/ccBwTfwM.s:1423   .debug_loc:0000000000000000 .LLST0
     /tmp/ccBwTfwM.s:1602   .debug_str:00000000000001b8 .LASF26
     /tmp/ccBwTfwM.s:1604   .debug_str:00000000000001bd .LASF28
     /tmp/ccBwTfwM.s:1612   .debug_str:0000000000000225 .LASF27
     /tmp/ccBwTfwM.s:1630   .debug_str:000000000000028c .LASF29
     /tmp/ccBwTfwM.s:137    .text:00000000000000a8 .LFB9
     /tmp/ccBwTfwM.s:209    .text:0000000000000114 .LFE9
     /tmp/ccBwTfwM.s:1432   .debug_loc:000000000000002c .LLST4
     /tmp/ccBwTfwM.s:154    .text:00000000000000c0 .LBB22
     /tmp/ccBwTfwM.s:1552   .debug_ranges:0000000000000000 .Ldebug_ranges0
     /tmp/ccBwTfwM.s:1454   .debug_loc:000000000000008b .LLST5
     /tmp/ccBwTfwM.s:1469   .debug_loc:00000000000000d4 .LLST6
     /tmp/ccBwTfwM.s:161    .text:00000000000000cc .LBB24
     /tmp/ccBwTfwM.s:168    .text:00000000000000d4 .LBE24
     /tmp/ccBwTfwM.s:1484   .debug_loc:000000000000011c .LLST7
     /tmp/ccBwTfwM.s:1492   .debug_loc:0000000000000140 .LLST8
     /tmp/ccBwTfwM.s:1499   .debug_loc:0000000000000163 .LLST9
     /tmp/ccBwTfwM.s:160    .text:00000000000000cc .LVL13
     /tmp/ccBwTfwM.s:62     .text:0000000000000040 .LFB8
     /tmp/ccBwTfwM.s:131    .text:00000000000000a8 .LFE8
     /tmp/ccBwTfwM.s:77     .text:0000000000000054 .LBB18
GAS LISTING /tmp/ccBwTfwM.s 			page 10


     /tmp/ccBwTfwM.s:1506   .debug_loc:0000000000000186 .LLST1
     /tmp/ccBwTfwM.s:1521   .debug_loc:00000000000001ce .LLST2
     /tmp/ccBwTfwM.s:1532   .debug_loc:0000000000000204 .LLST3
     /tmp/ccBwTfwM.s:96     .text:000000000000007c .LVL6
     /tmp/ccBwTfwM.s:1650   .debug_str:0000000000000346 .LASF30
     /tmp/ccBwTfwM.s:1624   .debug_str:000000000000026c .LASF32
     /tmp/ccBwTfwM.s:1644   .debug_str:0000000000000318 .LASF31
     /tmp/ccBwTfwM.s:1620   .debug_str:000000000000023d .LASF33
     /tmp/ccBwTfwM.s:40     .text:000000000000002c .LVL1
     /tmp/ccBwTfwM.s:49     .text:000000000000003c .LVL2
     /tmp/ccBwTfwM.s:140    .text:00000000000000a8 .LVL10
     /tmp/ccBwTfwM.s:158    .text:00000000000000c4 .LVL12
     /tmp/ccBwTfwM.s:190    .text:00000000000000f8 .LVL16
     /tmp/ccBwTfwM.s:194    .text:0000000000000100 .LVL17
     /tmp/ccBwTfwM.s:153    .text:00000000000000c0 .LVL11
     /tmp/ccBwTfwM.s:177    .text:00000000000000ec .LVL15
     /tmp/ccBwTfwM.s:203    .text:0000000000000110 .LVL18
     /tmp/ccBwTfwM.s:166    .text:00000000000000d4 .LVL14
     /tmp/ccBwTfwM.s:76     .text:0000000000000054 .LVL3
     /tmp/ccBwTfwM.s:113    .text:0000000000000094 .LVL7
     /tmp/ccBwTfwM.s:125    .text:00000000000000a4 .LVL9
     /tmp/ccBwTfwM.s:83     .text:0000000000000060 .LVL4
     /tmp/ccBwTfwM.s:121    .text:00000000000000a0 .LVL8
     /tmp/ccBwTfwM.s:93     .text:0000000000000074 .LVL5
     /tmp/ccBwTfwM.s:257    .debug_info:0000000000000000 .Ldebug_info0
     /tmp/ccBwTfwM.s:99     .text:000000000000007c .LBE18
     /tmp/ccBwTfwM.s:116    .text:0000000000000094 .LBB21
     /tmp/ccBwTfwM.s:127    .text:00000000000000a4 .LBE21
     /tmp/ccBwTfwM.s:180    .text:00000000000000ec .LBE22
     /tmp/ccBwTfwM.s:197    .text:0000000000000100 .LBB27
     /tmp/ccBwTfwM.s:205    .text:0000000000000110 .LBE27

UNDEFINED SYMBOLS
_ZdlPv
_Znwm
