GAS LISTING /tmp/ccujrKxR.s 			page 1


   1              		.file	"scheduler.cpp"
   2              		.option pic
   3              		.option norelax
   4              		.text
   5              	.Ltext0:
   6              		.align	2
   8              	_Z41__static_initialization_and_destruction_0ii:
   9              	.LFB35:
  10              		.file 1 "src/scheduler.cpp"
   1:src/scheduler.cpp **** #include "../h/scheduler.hpp"
   2:src/scheduler.cpp **** #include "../h/tcb.hpp"
   3:src/scheduler.cpp **** List<TCB> Scheduler::readyThreadQueue;
   4:src/scheduler.cpp **** List<TCB> Scheduler::sleepThreadQueue;
   5:src/scheduler.cpp **** uint64 Scheduler::nsleep = 0;
   6:src/scheduler.cpp **** TCB* Scheduler::idle = nullptr;
   7:src/scheduler.cpp **** #include "../h/print.hpp"
   8:src/scheduler.cpp **** 
   9:src/scheduler.cpp **** TCB *Scheduler::get() { 
  10:src/scheduler.cpp ****     if(readyThreadQueue.getNumOfElem() == 0) 
  11:src/scheduler.cpp ****         return idle;
  12:src/scheduler.cpp ****     return readyThreadQueue.removeFirst(); 
  13:src/scheduler.cpp **** }
  14:src/scheduler.cpp **** void Scheduler::put(TCB *ccb) {
  15:src/scheduler.cpp ****     if(ccb != idle) {
  16:src/scheduler.cpp ****         //printString("Dodat\n");
  17:src/scheduler.cpp ****         readyThreadQueue.addLast(ccb);
  18:src/scheduler.cpp ****     }
  19:src/scheduler.cpp **** }
  20:src/scheduler.cpp **** 
  21:src/scheduler.cpp **** TCB *Scheduler::getSleep() { nsleep--; return sleepThreadQueue.removeFirst(); }
  22:src/scheduler.cpp **** void Scheduler::putSleep(TCB *ccb) { nsleep++; sleepThreadQueue.addLast(ccb); }
  23:src/scheduler.cpp **** uint64 Scheduler::getNumOfSleep(){return nsleep;}...
  11              		.loc 1 23 49
  12              		.cfi_startproc
  13              	.LVL0:
  14 0000 130101FF 		addi	sp,sp,-16
  15              		.cfi_def_cfa_offset 16
  16 0004 23348100 		sd	s0,8(sp)
  17              		.cfi_offset 8, -8
  18 0008 13040101 		addi	s0,sp,16
  19              		.cfi_def_cfa 8, 0
  20              		.loc 1 23 49 is_stmt 0
  21 000c 93071000 		li	a5,1
  22 0010 6308F500 		beq	a0,a5,.L4
  23              	.L1:
  24 0014 03348100 		ld	s0,8(sp)
  25              		.cfi_remember_state
  26              		.cfi_restore 8
  27              		.cfi_def_cfa 2, 16
  28 0018 13010101 		addi	sp,sp,16
  29              		.cfi_def_cfa_offset 0
  30 001c 67800000 		jr	ra
  31              	.L4:
  32              		.cfi_restore_state
  33              		.loc 1 23 49 discriminator 1
  34 0020 B7070100 		li	a5,65536
  35 0024 9387F7FF 		addi	a5,a5,-1
GAS LISTING /tmp/ccujrKxR.s 			page 2


  36 0028 E396F5FE 		bne	a1,a5,.L1
  37              	.LVL1:
  38              	.LBB13:
  39              	.LBB14:
  40              	.LBB15:
  41              		.file 2 "src/../h/list.hpp"
   1:src/../h/list.hpp **** #ifndef list_hpp
   2:src/../h/list.hpp **** #define list_hpp
   3:src/../h/list.hpp **** // Vezbe 7
   4:src/../h/list.hpp **** template <typename T> class List {
   5:src/../h/list.hpp **** 
   6:src/../h/list.hpp **** private:
   7:src/../h/list.hpp ****   struct Elem {
   8:src/../h/list.hpp ****     T *data;
   9:src/../h/list.hpp ****     Elem *next;
  10:src/../h/list.hpp **** 
  11:src/../h/list.hpp ****     Elem(T *data, Elem *next) : data(data), next(next) {}
  12:src/../h/list.hpp ****   };
  13:src/../h/list.hpp ****   Elem *head, *tail;
  14:src/../h/list.hpp ****   uint64 n;
  15:src/../h/list.hpp **** public:
  16:src/../h/list.hpp ****   List() : head(0), tail(0) {}
  42              		.loc 2 16 27
  43 002c 97070000 		lla	a5,.LANCHOR0
  43      93870700 
  44 0034 23B00700 		sd	zero,0(a5)
  45 0038 23B40700 		sd	zero,8(a5)
  46              	.LVL2:
  47              	.LBE15:
  48              	.LBE14:
  49              	.LBE13:
  50              	.LBB16:
  51              	.LBB17:
  52              	.LBB18:
  53 003c 23BC0700 		sd	zero,24(a5)
  54 0040 23B00702 		sd	zero,32(a5)
  55              	.LVL3:
  56              	.LBE18:
  57              	.LBE17:
  58              	.LBE16:
  59              		.loc 1 23 49
  60 0044 6FF01FFD 		j	.L1
  61              		.cfi_endproc
  62              	.LFE35:
  64              		.align	2
  65              		.globl	_ZN9Scheduler3getEv
  67              	_ZN9Scheduler3getEv:
  68              	.LFB21:
   9:src/scheduler.cpp **** TCB *Scheduler::get() { 
  69              		.loc 1 9 23 is_stmt 1
  70              		.cfi_startproc
  71 0048 130101FE 		addi	sp,sp,-32
  72              		.cfi_def_cfa_offset 32
  73 004c 233C1100 		sd	ra,24(sp)
  74 0050 23388100 		sd	s0,16(sp)
  75 0054 23349100 		sd	s1,8(sp)
  76              		.cfi_offset 1, -8
GAS LISTING /tmp/ccujrKxR.s 			page 3


  77              		.cfi_offset 8, -16
  78              		.cfi_offset 9, -24
  79 0058 13040102 		addi	s0,sp,32
  80              		.cfi_def_cfa 8, 0
  10:src/scheduler.cpp ****     if(readyThreadQueue.getNumOfElem() == 0) 
  81              		.loc 1 10 5
  82              	.LVL4:
  83              	.LBB23:
  84              	.LBB24:
  17:src/../h/list.hpp ****   List(const List<T> &) = delete;
  18:src/../h/list.hpp ****   List<T> &operator=(const List<T> &) = delete;
  19:src/../h/list.hpp ****   uint64 getNumOfElem(){ return n; }
  85              		.loc 2 19 33 is_stmt 0
  86 005c 97070000 		ld	a5,.LANCHOR0+16
  86      83B70700 
  87              	.LVL5:
  88              	.LBE24:
  89              	.LBE23:
  10:src/scheduler.cpp ****     if(readyThreadQueue.getNumOfElem() == 0) 
  90              		.loc 1 10 5
  91 0064 63920702 		bnez	a5,.L6
  11:src/scheduler.cpp ****         return idle;
  92              		.loc 1 11 9 is_stmt 1
  11:src/scheduler.cpp ****         return idle;
  93              		.loc 1 11 16 is_stmt 0
  94 0068 97040000 		ld	s1,.LANCHOR0+48
  94      83B40400 
  95              	.L5:
  13:src/scheduler.cpp **** }
  96              		.loc 1 13 1
  97 0070 13850400 		mv	a0,s1
  98 0074 83308101 		ld	ra,24(sp)
  99              		.cfi_remember_state
 100              		.cfi_restore 1
 101 0078 03340101 		ld	s0,16(sp)
 102              		.cfi_restore 8
 103              		.cfi_def_cfa 2, 32
 104 007c 83348100 		ld	s1,8(sp)
 105              		.cfi_restore 9
 106 0080 13010102 		addi	sp,sp,32
 107              		.cfi_def_cfa_offset 0
 108 0084 67800000 		jr	ra
 109              	.L6:
 110              		.cfi_restore_state
  12:src/scheduler.cpp ****     return readyThreadQueue.removeFirst(); 
 111              		.loc 1 12 5 is_stmt 1
 112              	.LVL6:
 113              	.LBB25:
 114              	.LBB26:
  20:src/../h/list.hpp ****   void addFirst(T *data) {
  21:src/../h/list.hpp ****     Elem *elem = new Elem(data, head);
  22:src/../h/list.hpp ****     head = elem;
  23:src/../h/list.hpp ****     n++;
  24:src/../h/list.hpp ****     if (!tail) {
  25:src/../h/list.hpp ****       tail = head;
  26:src/../h/list.hpp ****     }
  27:src/../h/list.hpp ****   }
GAS LISTING /tmp/ccujrKxR.s 			page 4


  28:src/../h/list.hpp ****   void addLast(T *data) {
  29:src/../h/list.hpp ****     Elem *elem = new Elem(data, 0);
  30:src/../h/list.hpp ****     if (tail) {
  31:src/../h/list.hpp ****       tail->next = elem;
  32:src/../h/list.hpp ****       tail = elem;
  33:src/../h/list.hpp ****     } else {
  34:src/../h/list.hpp ****       head = tail = elem;
  35:src/../h/list.hpp ****     }
  36:src/../h/list.hpp ****     n++;
  37:src/../h/list.hpp ****   }
  38:src/../h/list.hpp ****   T *removeFirst() {
  39:src/../h/list.hpp ****     if (!head) {
 115              		.loc 2 39 10 is_stmt 0
 116 0088 17050000 		ld	a0,.LANCHOR0
 116      03350500 
 117              		.loc 2 39 5
 118 0090 63020504 		beqz	a0,.L10
 119              	.LVL7:
  40:src/../h/list.hpp ****       return 0;
  41:src/../h/list.hpp ****     }
  42:src/../h/list.hpp ****     Elem *elem = head;
  43:src/../h/list.hpp ****     head = head->next;
 120              		.loc 2 43 18
 121 0094 83378500 		ld	a5,8(a0)
 122              		.loc 2 43 5
 123 0098 17070000 		sd	a5,.LANCHOR0,a4
 123      2330F700 
  44:src/../h/list.hpp ****     if (!head) {
 124              		.loc 2 44 5
 125 00a0 63840702 		beqz	a5,.L12
 126              	.L9:
  45:src/../h/list.hpp ****       tail = 0;
  46:src/../h/list.hpp ****     }
  47:src/../h/list.hpp ****     n--;
 127              		.loc 2 47 5
 128 00a4 17070000 		lla	a4,.LANCHOR0
 128      13070700 
 129 00ac 83370701 		ld	a5,16(a4)
 130 00b0 9387F7FF 		addi	a5,a5,-1
 131 00b4 2338F700 		sd	a5,16(a4)
  48:src/../h/list.hpp ****     T *ret = elem->data;
 132              		.loc 2 48 8
 133 00b8 83340500 		ld	s1,0(a0)
 134              	.LVL8:
  49:src/../h/list.hpp ****     delete elem;
 135              		.loc 2 49 5
 136 00bc 97000000 		call	_ZdlPv@plt
 136      E7800000 
 137              	.LVL9:
  50:src/../h/list.hpp ****     return ret;
 138              		.loc 2 50 12
 139 00c4 6FF0DFFA 		j	.L5
 140              	.LVL10:
 141              	.L12:
  45:src/../h/list.hpp ****     }
 142              		.loc 2 45 7
 143 00c8 97070000 		sd	zero,.LANCHOR0+8,a5
GAS LISTING /tmp/ccujrKxR.s 			page 5


 143      23B00700 
 144 00d0 6FF05FFD 		j	.L9
 145              	.LVL11:
 146              	.L10:
  40:src/../h/list.hpp ****     }
 147              		.loc 2 40 14
 148 00d4 93040500 		mv	s1,a0
 149              	.LVL12:
 150              	.LBE26:
 151              	.LBE25:
  12:src/scheduler.cpp ****     return readyThreadQueue.removeFirst(); 
 152              		.loc 1 12 41
 153 00d8 6FF09FF9 		j	.L5
 154              		.cfi_endproc
 155              	.LFE21:
 157              		.align	2
 158              		.globl	_ZN9Scheduler3putEP3TCB
 160              	_ZN9Scheduler3putEP3TCB:
 161              	.LFB22:
  14:src/scheduler.cpp **** void Scheduler::put(TCB *ccb) {
 162              		.loc 1 14 31 is_stmt 1
 163              		.cfi_startproc
 164              	.LVL13:
  15:src/scheduler.cpp ****     if(ccb != idle) {
 165              		.loc 1 15 5
  15:src/scheduler.cpp ****     if(ccb != idle) {
 166              		.loc 1 15 12 is_stmt 0
 167 00dc 97070000 		ld	a5,.LANCHOR0+48
 167      83B70700 
  15:src/scheduler.cpp ****     if(ccb != idle) {
 168              		.loc 1 15 5
 169 00e4 6382A708 		beq	a5,a0,.L18
  14:src/scheduler.cpp **** void Scheduler::put(TCB *ccb) {
 170              		.loc 1 14 31
 171 00e8 130101FE 		addi	sp,sp,-32
 172              		.cfi_def_cfa_offset 32
 173 00ec 233C1100 		sd	ra,24(sp)
 174 00f0 23388100 		sd	s0,16(sp)
 175 00f4 23349100 		sd	s1,8(sp)
 176              		.cfi_offset 1, -8
 177              		.cfi_offset 8, -16
 178              		.cfi_offset 9, -24
 179 00f8 13040102 		addi	s0,sp,32
 180              		.cfi_def_cfa 8, 0
 181 00fc 93040500 		mv	s1,a0
  17:src/scheduler.cpp ****         readyThreadQueue.addLast(ccb);
 182              		.loc 1 17 9 is_stmt 1
 183              	.LVL14:
 184              	.LBB32:
 185              	.LBB33:
  29:src/../h/list.hpp ****     if (tail) {
 186              		.loc 2 29 18 is_stmt 0
 187 0100 13050001 		li	a0,16
 188              	.LVL15:
 189 0104 97000000 		call	_Znwm@plt
 189      E7800000 
 190              	.LVL16:
GAS LISTING /tmp/ccujrKxR.s 			page 6


 191              	.LBB34:
 192              	.LBB35:
  11:src/../h/list.hpp ****   };
 193              		.loc 2 11 54
 194 010c 23309500 		sd	s1,0(a0)
 195 0110 23340500 		sd	zero,8(a0)
 196              	.LVL17:
 197              	.LBE35:
 198              	.LBE34:
  30:src/../h/list.hpp ****       tail->next = elem;
 199              		.loc 2 30 9
 200 0114 97070000 		ld	a5,.LANCHOR0+8
 200      83B70700 
  30:src/../h/list.hpp ****       tail->next = elem;
 201              		.loc 2 30 5
 202 011c 638C0702 		beqz	a5,.L15
  31:src/../h/list.hpp ****       tail = elem;
 203              		.loc 2 31 7
 204 0120 23B4A700 		sd	a0,8(a5)
  32:src/../h/list.hpp ****     } else {
 205              		.loc 2 32 7
 206 0124 97070000 		sd	a0,.LANCHOR0+8,a5
 206      23B0A700 
 207              	.L16:
  36:src/../h/list.hpp ****   }
 208              		.loc 2 36 5
 209 012c 17070000 		lla	a4,.LANCHOR0
 209      13070700 
 210 0134 83370701 		ld	a5,16(a4)
 211 0138 93871700 		addi	a5,a5,1
 212 013c 2338F700 		sd	a5,16(a4)
 213              	.LVL18:
 214              	.LBE33:
 215              	.LBE32:
  19:src/scheduler.cpp **** }
 216              		.loc 1 19 1
 217 0140 83308101 		ld	ra,24(sp)
 218              		.cfi_remember_state
 219              		.cfi_restore 1
 220 0144 03340101 		ld	s0,16(sp)
 221              		.cfi_restore 8
 222              		.cfi_def_cfa 2, 32
 223 0148 83348100 		ld	s1,8(sp)
 224              		.cfi_restore 9
 225              	.LVL19:
 226 014c 13010102 		addi	sp,sp,32
 227              		.cfi_def_cfa_offset 0
 228 0150 67800000 		jr	ra
 229              	.LVL20:
 230              	.L15:
 231              		.cfi_restore_state
 232              	.LBB37:
 233              	.LBB36:
  34:src/../h/list.hpp ****     }
 234              		.loc 2 34 7
 235 0154 97070000 		lla	a5,.LANCHOR0
 235      93870700 
GAS LISTING /tmp/ccujrKxR.s 			page 7


 236 015c 23B4A700 		sd	a0,8(a5)
 237 0160 23B0A700 		sd	a0,0(a5)
 238 0164 6FF09FFC 		j	.L16
 239              	.LVL21:
 240              	.L18:
 241              		.cfi_def_cfa_register 2
 242              		.cfi_restore 1
 243              		.cfi_restore 8
 244              		.cfi_restore 9
 245 0168 67800000 		ret
 246              	.LBE36:
 247              	.LBE37:
 248              		.cfi_endproc
 249              	.LFE22:
 251              		.align	2
 252              		.globl	_ZN9Scheduler8getSleepEv
 254              	_ZN9Scheduler8getSleepEv:
 255              	.LFB23:
  21:src/scheduler.cpp **** TCB *Scheduler::getSleep() { nsleep--; return sleepThreadQueue.removeFirst(); }
 256              		.loc 1 21 28 is_stmt 1
 257              		.cfi_startproc
 258 016c 130101FE 		addi	sp,sp,-32
 259              		.cfi_def_cfa_offset 32
 260 0170 233C1100 		sd	ra,24(sp)
 261 0174 23388100 		sd	s0,16(sp)
 262 0178 23349100 		sd	s1,8(sp)
 263              		.cfi_offset 1, -8
 264              		.cfi_offset 8, -16
 265              		.cfi_offset 9, -24
 266 017c 13040102 		addi	s0,sp,32
 267              		.cfi_def_cfa 8, 0
  21:src/scheduler.cpp **** TCB *Scheduler::getSleep() { nsleep--; return sleepThreadQueue.removeFirst(); }
 268              		.loc 1 21 30
  21:src/scheduler.cpp **** TCB *Scheduler::getSleep() { nsleep--; return sleepThreadQueue.removeFirst(); }
 269              		.loc 1 21 36 is_stmt 0
 270 0180 97070000 		lla	a5,.LANCHOR0
 270      93870700 
 271 0188 03B78703 		ld	a4,56(a5)
 272 018c 1307F7FF 		addi	a4,a4,-1
 273 0190 23BCE702 		sd	a4,56(a5)
  21:src/scheduler.cpp **** TCB *Scheduler::getSleep() { nsleep--; return sleepThreadQueue.removeFirst(); }
 274              		.loc 1 21 40 is_stmt 1
 275              	.LVL22:
 276              	.LBB40:
 277              	.LBB41:
  39:src/../h/list.hpp ****       return 0;
 278              		.loc 2 39 10 is_stmt 0
 279 0194 03B58701 		ld	a0,24(a5)
  39:src/../h/list.hpp ****       return 0;
 280              		.loc 2 39 5
 281 0198 630C0504 		beqz	a0,.L24
 282              	.LVL23:
  43:src/../h/list.hpp ****     if (!head) {
 283              		.loc 2 43 18
 284 019c 83378500 		ld	a5,8(a0)
  43:src/../h/list.hpp ****     if (!head) {
 285              		.loc 2 43 5
GAS LISTING /tmp/ccujrKxR.s 			page 8


 286 01a0 17070000 		sd	a5,.LANCHOR0+24,a4
 286      2330F700 
  44:src/../h/list.hpp ****       tail = 0;
 287              		.loc 2 44 5
 288 01a8 638E0702 		beqz	a5,.L26
 289              	.L23:
  47:src/../h/list.hpp ****     T *ret = elem->data;
 290              		.loc 2 47 5
 291 01ac 17070000 		lla	a4,.LANCHOR0
 291      13070700 
 292 01b4 83378702 		ld	a5,40(a4)
 293 01b8 9387F7FF 		addi	a5,a5,-1
 294 01bc 2334F702 		sd	a5,40(a4)
  48:src/../h/list.hpp ****     delete elem;
 295              		.loc 2 48 8
 296 01c0 83340500 		ld	s1,0(a0)
 297              	.LVL24:
  49:src/../h/list.hpp ****     return ret;
 298              		.loc 2 49 5
 299 01c4 97000000 		call	_ZdlPv@plt
 299      E7800000 
 300              	.LVL25:
 301              	.L21:
 302              	.LBE41:
 303              	.LBE40:
  21:src/scheduler.cpp **** TCB *Scheduler::getSleep() { nsleep--; return sleepThreadQueue.removeFirst(); }
 304              		.loc 1 21 79
 305 01cc 13850400 		mv	a0,s1
 306 01d0 83308101 		ld	ra,24(sp)
 307              		.cfi_remember_state
 308              		.cfi_restore 1
 309 01d4 03340101 		ld	s0,16(sp)
 310              		.cfi_restore 8
 311              		.cfi_def_cfa 2, 32
 312 01d8 83348100 		ld	s1,8(sp)
 313              		.cfi_restore 9
 314 01dc 13010102 		addi	sp,sp,32
 315              		.cfi_def_cfa_offset 0
 316 01e0 67800000 		jr	ra
 317              	.LVL26:
 318              	.L26:
 319              		.cfi_restore_state
 320              	.LBB43:
 321              	.LBB42:
  45:src/../h/list.hpp ****     }
 322              		.loc 2 45 7
 323 01e4 97070000 		sd	zero,.LANCHOR0+32,a5
 323      23B00700 
 324 01ec 6FF01FFC 		j	.L23
 325              	.LVL27:
 326              	.L24:
  40:src/../h/list.hpp ****     }
 327              		.loc 2 40 14
 328 01f0 93040500 		mv	s1,a0
 329              	.LVL28:
 330              	.LBE42:
 331              	.LBE43:
GAS LISTING /tmp/ccujrKxR.s 			page 9


  21:src/scheduler.cpp **** TCB *Scheduler::getSleep() { nsleep--; return sleepThreadQueue.removeFirst(); }
 332              		.loc 1 21 76
 333 01f4 6FF09FFD 		j	.L21
 334              		.cfi_endproc
 335              	.LFE23:
 337              		.align	2
 338              		.globl	_ZN9Scheduler8putSleepEP3TCB
 340              	_ZN9Scheduler8putSleepEP3TCB:
 341              	.LFB24:
  22:src/scheduler.cpp **** void Scheduler::putSleep(TCB *ccb) { nsleep++; sleepThreadQueue.addLast(ccb); }
 342              		.loc 1 22 36 is_stmt 1
 343              		.cfi_startproc
 344              	.LVL29:
 345 01f8 130101FE 		addi	sp,sp,-32
 346              		.cfi_def_cfa_offset 32
 347 01fc 233C1100 		sd	ra,24(sp)
 348 0200 23388100 		sd	s0,16(sp)
 349 0204 23349100 		sd	s1,8(sp)
 350 0208 23302101 		sd	s2,0(sp)
 351              		.cfi_offset 1, -8
 352              		.cfi_offset 8, -16
 353              		.cfi_offset 9, -24
 354              		.cfi_offset 18, -32
 355 020c 13040102 		addi	s0,sp,32
 356              		.cfi_def_cfa 8, 0
 357 0210 13090500 		mv	s2,a0
  22:src/scheduler.cpp **** void Scheduler::putSleep(TCB *ccb) { nsleep++; sleepThreadQueue.addLast(ccb); }
 358              		.loc 1 22 38
  22:src/scheduler.cpp **** void Scheduler::putSleep(TCB *ccb) { nsleep++; sleepThreadQueue.addLast(ccb); }
 359              		.loc 1 22 44 is_stmt 0
 360 0214 97040000 		lla	s1,.LANCHOR0
 360      93840400 
 361 021c 83B78403 		ld	a5,56(s1)
 362 0220 93871700 		addi	a5,a5,1
 363 0224 23BCF402 		sd	a5,56(s1)
  22:src/scheduler.cpp **** void Scheduler::putSleep(TCB *ccb) { nsleep++; sleepThreadQueue.addLast(ccb); }
 364              		.loc 1 22 48 is_stmt 1
 365              	.LVL30:
 366              	.LBB49:
 367              	.LBB50:
  29:src/../h/list.hpp ****     if (tail) {
 368              		.loc 2 29 18 is_stmt 0
 369 0228 13050001 		li	a0,16
 370              	.LVL31:
 371 022c 97000000 		call	_Znwm@plt
 371      E7800000 
 372              	.LVL32:
 373              	.LBB51:
 374              	.LBB52:
  11:src/../h/list.hpp ****   };
 375              		.loc 2 11 54
 376 0234 23302501 		sd	s2,0(a0)
 377 0238 23340500 		sd	zero,8(a0)
 378              	.LVL33:
 379              	.LBE52:
 380              	.LBE51:
  30:src/../h/list.hpp ****       tail->next = elem;
GAS LISTING /tmp/ccujrKxR.s 			page 10


 381              		.loc 2 30 9
 382 023c 83B70402 		ld	a5,32(s1)
  30:src/../h/list.hpp ****       tail->next = elem;
 383              		.loc 2 30 5
 384 0240 638E0702 		beqz	a5,.L28
  31:src/../h/list.hpp ****       tail = elem;
 385              		.loc 2 31 7
 386 0244 23B4A700 		sd	a0,8(a5)
  32:src/../h/list.hpp ****     } else {
 387              		.loc 2 32 7
 388 0248 97070000 		sd	a0,.LANCHOR0+32,a5
 388      23B0A700 
 389              	.L29:
  36:src/../h/list.hpp ****   }
 390              		.loc 2 36 5
 391 0250 17070000 		lla	a4,.LANCHOR0
 391      13070700 
 392 0258 83378702 		ld	a5,40(a4)
 393 025c 93871700 		addi	a5,a5,1
 394 0260 2334F702 		sd	a5,40(a4)
 395              	.LVL34:
 396              	.LBE50:
 397              	.LBE49:
  22:src/scheduler.cpp **** void Scheduler::putSleep(TCB *ccb) { nsleep++; sleepThreadQueue.addLast(ccb); }
 398              		.loc 1 22 79
 399 0264 83308101 		ld	ra,24(sp)
 400              		.cfi_remember_state
 401              		.cfi_restore 1
 402 0268 03340101 		ld	s0,16(sp)
 403              		.cfi_restore 8
 404              		.cfi_def_cfa 2, 32
 405 026c 83348100 		ld	s1,8(sp)
 406              		.cfi_restore 9
 407 0270 03390100 		ld	s2,0(sp)
 408              		.cfi_restore 18
 409              	.LVL35:
 410 0274 13010102 		addi	sp,sp,32
 411              		.cfi_def_cfa_offset 0
 412 0278 67800000 		jr	ra
 413              	.LVL36:
 414              	.L28:
 415              		.cfi_restore_state
 416              	.LBB54:
 417              	.LBB53:
  34:src/../h/list.hpp ****     }
 418              		.loc 2 34 7
 419 027c 97070000 		lla	a5,.LANCHOR0
 419      93870700 
 420 0284 23B0A702 		sd	a0,32(a5)
 421 0288 23BCA700 		sd	a0,24(a5)
 422 028c 6FF05FFC 		j	.L29
 423              	.LBE53:
 424              	.LBE54:
 425              		.cfi_endproc
 426              	.LFE24:
 428              		.align	2
 429              		.globl	_ZN9Scheduler13getNumOfSleepEv
GAS LISTING /tmp/ccujrKxR.s 			page 11


 431              	_ZN9Scheduler13getNumOfSleepEv:
 432              	.LFB25:
 433              		.loc 1 23 34 is_stmt 1
 434              		.cfi_startproc
 435 0290 130101FF 		addi	sp,sp,-16
 436              		.cfi_def_cfa_offset 16
 437 0294 23348100 		sd	s0,8(sp)
 438              		.cfi_offset 8, -8
 439 0298 13040101 		addi	s0,sp,16
 440              		.cfi_def_cfa 8, 0
 441              		.loc 1 23 35
 442              		.loc 1 23 49 is_stmt 0
 443 029c 17050000 		ld	a0,.LANCHOR0+56
 443      03350500 
 444 02a4 03348100 		ld	s0,8(sp)
 445              		.cfi_restore 8
 446              		.cfi_def_cfa 2, 16
 447 02a8 13010101 		addi	sp,sp,16
 448              		.cfi_def_cfa_offset 0
 449 02ac 67800000 		jr	ra
 450              		.cfi_endproc
 451              	.LFE25:
 453              		.align	2
 455              	_GLOBAL__sub_I__ZN9Scheduler16readyThreadQueueE:
 456              	.LFB36:
 457              		.loc 1 23 49 is_stmt 1
 458              		.cfi_startproc
 459 02b0 130101FF 		addi	sp,sp,-16
 460              		.cfi_def_cfa_offset 16
 461 02b4 23341100 		sd	ra,8(sp)
 462 02b8 23308100 		sd	s0,0(sp)
 463              		.cfi_offset 1, -8
 464              		.cfi_offset 8, -16
 465 02bc 13040101 		addi	s0,sp,16
 466              		.cfi_def_cfa 8, 0
 467              		.loc 1 23 49 is_stmt 0
 468 02c0 B7050100 		li	a1,65536
 469 02c4 9385F5FF 		addi	a1,a1,-1
 470 02c8 13051000 		li	a0,1
 471 02cc 97000000 		call	_Z41__static_initialization_and_destruction_0ii
 471      E7800000 
 472              	.LVL37:
 473 02d4 83308100 		ld	ra,8(sp)
 474              		.cfi_restore 1
 475 02d8 03340100 		ld	s0,0(sp)
 476              		.cfi_restore 8
 477              		.cfi_def_cfa 2, 16
 478 02dc 13010101 		addi	sp,sp,16
 479              		.cfi_def_cfa_offset 0
 480 02e0 67800000 		jr	ra
 481              		.cfi_endproc
 482              	.LFE36:
 484              		.section	.init_array,"aw"
 485              		.align	3
 486 0000 00000000 		.dword	_GLOBAL__sub_I__ZN9Scheduler16readyThreadQueueE
 486      00000000 
 487              		.globl	_ZN9Scheduler4idleE
GAS LISTING /tmp/ccujrKxR.s 			page 12


 488              		.globl	_ZN9Scheduler6nsleepE
 489              		.globl	_ZN9Scheduler16sleepThreadQueueE
 490              		.globl	_ZN9Scheduler16readyThreadQueueE
 491              		.bss
 492              		.align	3
 493              		.set	.LANCHOR0,. + 0
 496              	_ZN9Scheduler16readyThreadQueueE:
 497 0000 00000000 		.zero	24
 497      00000000 
 497      00000000 
 497      00000000 
 497      00000000 
 500              	_ZN9Scheduler16sleepThreadQueueE:
 501 0018 00000000 		.zero	24
 501      00000000 
 501      00000000 
 501      00000000 
 501      00000000 
 504              	_ZN9Scheduler4idleE:
 505 0030 00000000 		.zero	8
 505      00000000 
 508              	_ZN9Scheduler6nsleepE:
 509 0038 00000000 		.zero	8
 509      00000000 
 510              		.text
 511              	.Letext0:
 512              		.file 3 "src/../h/../lib/hw.h"
 513              		.file 4 "src/../h/scheduler.hpp"
 514              		.file 5 "src/../h/tcb.hpp"
GAS LISTING /tmp/ccujrKxR.s 			page 13


DEFINED SYMBOLS
                            *ABS*:0000000000000000 scheduler.cpp
     /tmp/ccujrKxR.s:8      .text:0000000000000000 _Z41__static_initialization_and_destruction_0ii
     /tmp/ccujrKxR.s:12     .text:0000000000000000 .L0 
     /tmp/ccujrKxR.s:14     .text:0000000000000000 .L0 
     /tmp/ccujrKxR.s:15     .text:0000000000000004 .L0 
     /tmp/ccujrKxR.s:17     .text:0000000000000008 .L0 
     /tmp/ccujrKxR.s:19     .text:000000000000000c .L0 
     /tmp/ccujrKxR.s:21     .text:000000000000000c .L0 
     /tmp/ccujrKxR.s:25     .text:0000000000000018 .L0 
     /tmp/ccujrKxR.s:26     .text:0000000000000018 .L0 
     /tmp/ccujrKxR.s:27     .text:0000000000000018 .L0 
     /tmp/ccujrKxR.s:29     .text:000000000000001c .L0 
     /tmp/ccujrKxR.s:32     .text:0000000000000020 .L0 
     /tmp/ccujrKxR.s:34     .text:0000000000000020 .L0 
     /tmp/ccujrKxR.s:43     .text:000000000000002c .L0 
     /tmp/ccujrKxR.s:60     .text:0000000000000044 .L0 
     /tmp/ccujrKxR.s:61     .text:0000000000000048 .L0 
     /tmp/ccujrKxR.s:67     .text:0000000000000048 _ZN9Scheduler3getEv
     /tmp/ccujrKxR.s:70     .text:0000000000000048 .L0 
     /tmp/ccujrKxR.s:71     .text:0000000000000048 .L0 
     /tmp/ccujrKxR.s:72     .text:000000000000004c .L0 
     /tmp/ccujrKxR.s:76     .text:0000000000000058 .L0 
     /tmp/ccujrKxR.s:77     .text:0000000000000058 .L0 
     /tmp/ccujrKxR.s:78     .text:0000000000000058 .L0 
     /tmp/ccujrKxR.s:80     .text:000000000000005c .L0 
     /tmp/ccujrKxR.s:85     .text:000000000000005c .L0 
     /tmp/ccujrKxR.s:86     .text:000000000000005c .L0 
     /tmp/ccujrKxR.s:91     .text:0000000000000064 .L0 
     /tmp/ccujrKxR.s:93     .text:0000000000000068 .L0 
     /tmp/ccujrKxR.s:94     .text:0000000000000068 .L0 
     /tmp/ccujrKxR.s:97     .text:0000000000000070 .L0 
     /tmp/ccujrKxR.s:99     .text:0000000000000078 .L0 
     /tmp/ccujrKxR.s:100    .text:0000000000000078 .L0 
     /tmp/ccujrKxR.s:102    .text:000000000000007c .L0 
     /tmp/ccujrKxR.s:103    .text:000000000000007c .L0 
     /tmp/ccujrKxR.s:105    .text:0000000000000080 .L0 
     /tmp/ccujrKxR.s:107    .text:0000000000000084 .L0 
     /tmp/ccujrKxR.s:110    .text:0000000000000088 .L0 
     /tmp/ccujrKxR.s:115    .text:0000000000000088 .L0 
     /tmp/ccujrKxR.s:116    .text:0000000000000088 .L0 
     /tmp/ccujrKxR.s:118    .text:0000000000000090 .L0 
     /tmp/ccujrKxR.s:121    .text:0000000000000094 .L0 
     /tmp/ccujrKxR.s:123    .text:0000000000000098 .L0 
     /tmp/ccujrKxR.s:125    .text:00000000000000a0 .L0 
     /tmp/ccujrKxR.s:128    .text:00000000000000a4 .L0 
     /tmp/ccujrKxR.s:133    .text:00000000000000b8 .L0 
     /tmp/ccujrKxR.s:136    .text:00000000000000bc .L0 
     /tmp/ccujrKxR.s:139    .text:00000000000000c4 .L0 
     /tmp/ccujrKxR.s:143    .text:00000000000000c8 .L0 
     /tmp/ccujrKxR.s:148    .text:00000000000000d4 .L0 
     /tmp/ccujrKxR.s:153    .text:00000000000000d8 .L0 
     /tmp/ccujrKxR.s:154    .text:00000000000000dc .L0 
     /tmp/ccujrKxR.s:160    .text:00000000000000dc _ZN9Scheduler3putEP3TCB
     /tmp/ccujrKxR.s:163    .text:00000000000000dc .L0 
     /tmp/ccujrKxR.s:165    .text:00000000000000dc .L0 
     /tmp/ccujrKxR.s:166    .text:00000000000000dc .L0 
GAS LISTING /tmp/ccujrKxR.s 			page 14


     /tmp/ccujrKxR.s:167    .text:00000000000000dc .L0 
     /tmp/ccujrKxR.s:169    .text:00000000000000e4 .L0 
     /tmp/ccujrKxR.s:171    .text:00000000000000e8 .L0 
     /tmp/ccujrKxR.s:172    .text:00000000000000ec .L0 
     /tmp/ccujrKxR.s:176    .text:00000000000000f8 .L0 
     /tmp/ccujrKxR.s:177    .text:00000000000000f8 .L0 
     /tmp/ccujrKxR.s:178    .text:00000000000000f8 .L0 
     /tmp/ccujrKxR.s:180    .text:00000000000000fc .L0 
     /tmp/ccujrKxR.s:186    .text:0000000000000100 .L0 
     /tmp/ccujrKxR.s:187    .text:0000000000000100 .L0 
     /tmp/ccujrKxR.s:194    .text:000000000000010c .L0 
     /tmp/ccujrKxR.s:200    .text:0000000000000114 .L0 
     /tmp/ccujrKxR.s:202    .text:000000000000011c .L0 
     /tmp/ccujrKxR.s:204    .text:0000000000000120 .L0 
     /tmp/ccujrKxR.s:206    .text:0000000000000124 .L0 
     /tmp/ccujrKxR.s:209    .text:000000000000012c .L0 
     /tmp/ccujrKxR.s:217    .text:0000000000000140 .L0 
     /tmp/ccujrKxR.s:218    .text:0000000000000144 .L0 
     /tmp/ccujrKxR.s:219    .text:0000000000000144 .L0 
     /tmp/ccujrKxR.s:221    .text:0000000000000148 .L0 
     /tmp/ccujrKxR.s:222    .text:0000000000000148 .L0 
     /tmp/ccujrKxR.s:224    .text:000000000000014c .L0 
     /tmp/ccujrKxR.s:227    .text:0000000000000150 .L0 
     /tmp/ccujrKxR.s:231    .text:0000000000000154 .L0 
     /tmp/ccujrKxR.s:235    .text:0000000000000154 .L0 
     /tmp/ccujrKxR.s:241    .text:0000000000000168 .L0 
     /tmp/ccujrKxR.s:242    .text:0000000000000168 .L0 
     /tmp/ccujrKxR.s:243    .text:0000000000000168 .L0 
     /tmp/ccujrKxR.s:244    .text:0000000000000168 .L0 
     /tmp/ccujrKxR.s:248    .text:000000000000016c .L0 
     /tmp/ccujrKxR.s:254    .text:000000000000016c _ZN9Scheduler8getSleepEv
     /tmp/ccujrKxR.s:257    .text:000000000000016c .L0 
     /tmp/ccujrKxR.s:258    .text:000000000000016c .L0 
     /tmp/ccujrKxR.s:259    .text:0000000000000170 .L0 
     /tmp/ccujrKxR.s:263    .text:000000000000017c .L0 
     /tmp/ccujrKxR.s:264    .text:000000000000017c .L0 
     /tmp/ccujrKxR.s:265    .text:000000000000017c .L0 
     /tmp/ccujrKxR.s:267    .text:0000000000000180 .L0 
     /tmp/ccujrKxR.s:269    .text:0000000000000180 .L0 
     /tmp/ccujrKxR.s:270    .text:0000000000000180 .L0 
     /tmp/ccujrKxR.s:278    .text:0000000000000194 .L0 
     /tmp/ccujrKxR.s:279    .text:0000000000000194 .L0 
     /tmp/ccujrKxR.s:281    .text:0000000000000198 .L0 
     /tmp/ccujrKxR.s:284    .text:000000000000019c .L0 
     /tmp/ccujrKxR.s:286    .text:00000000000001a0 .L0 
     /tmp/ccujrKxR.s:288    .text:00000000000001a8 .L0 
     /tmp/ccujrKxR.s:291    .text:00000000000001ac .L0 
     /tmp/ccujrKxR.s:296    .text:00000000000001c0 .L0 
     /tmp/ccujrKxR.s:299    .text:00000000000001c4 .L0 
     /tmp/ccujrKxR.s:305    .text:00000000000001cc .L0 
     /tmp/ccujrKxR.s:307    .text:00000000000001d4 .L0 
     /tmp/ccujrKxR.s:308    .text:00000000000001d4 .L0 
     /tmp/ccujrKxR.s:310    .text:00000000000001d8 .L0 
     /tmp/ccujrKxR.s:311    .text:00000000000001d8 .L0 
     /tmp/ccujrKxR.s:313    .text:00000000000001dc .L0 
     /tmp/ccujrKxR.s:315    .text:00000000000001e0 .L0 
     /tmp/ccujrKxR.s:319    .text:00000000000001e4 .L0 
GAS LISTING /tmp/ccujrKxR.s 			page 15


     /tmp/ccujrKxR.s:323    .text:00000000000001e4 .L0 
     /tmp/ccujrKxR.s:328    .text:00000000000001f0 .L0 
     /tmp/ccujrKxR.s:333    .text:00000000000001f4 .L0 
     /tmp/ccujrKxR.s:334    .text:00000000000001f8 .L0 
     /tmp/ccujrKxR.s:340    .text:00000000000001f8 _ZN9Scheduler8putSleepEP3TCB
     /tmp/ccujrKxR.s:343    .text:00000000000001f8 .L0 
     /tmp/ccujrKxR.s:345    .text:00000000000001f8 .L0 
     /tmp/ccujrKxR.s:346    .text:00000000000001fc .L0 
     /tmp/ccujrKxR.s:351    .text:000000000000020c .L0 
     /tmp/ccujrKxR.s:352    .text:000000000000020c .L0 
     /tmp/ccujrKxR.s:353    .text:000000000000020c .L0 
     /tmp/ccujrKxR.s:354    .text:000000000000020c .L0 
     /tmp/ccujrKxR.s:356    .text:0000000000000210 .L0 
     /tmp/ccujrKxR.s:359    .text:0000000000000214 .L0 
     /tmp/ccujrKxR.s:360    .text:0000000000000214 .L0 
     /tmp/ccujrKxR.s:368    .text:0000000000000228 .L0 
     /tmp/ccujrKxR.s:369    .text:0000000000000228 .L0 
     /tmp/ccujrKxR.s:376    .text:0000000000000234 .L0 
     /tmp/ccujrKxR.s:382    .text:000000000000023c .L0 
     /tmp/ccujrKxR.s:384    .text:0000000000000240 .L0 
     /tmp/ccujrKxR.s:386    .text:0000000000000244 .L0 
     /tmp/ccujrKxR.s:388    .text:0000000000000248 .L0 
     /tmp/ccujrKxR.s:391    .text:0000000000000250 .L0 
     /tmp/ccujrKxR.s:399    .text:0000000000000264 .L0 
     /tmp/ccujrKxR.s:400    .text:0000000000000268 .L0 
     /tmp/ccujrKxR.s:401    .text:0000000000000268 .L0 
     /tmp/ccujrKxR.s:403    .text:000000000000026c .L0 
     /tmp/ccujrKxR.s:404    .text:000000000000026c .L0 
     /tmp/ccujrKxR.s:406    .text:0000000000000270 .L0 
     /tmp/ccujrKxR.s:408    .text:0000000000000274 .L0 
     /tmp/ccujrKxR.s:411    .text:0000000000000278 .L0 
     /tmp/ccujrKxR.s:415    .text:000000000000027c .L0 
     /tmp/ccujrKxR.s:419    .text:000000000000027c .L0 
     /tmp/ccujrKxR.s:425    .text:0000000000000290 .L0 
     /tmp/ccujrKxR.s:431    .text:0000000000000290 _ZN9Scheduler13getNumOfSleepEv
     /tmp/ccujrKxR.s:434    .text:0000000000000290 .L0 
     /tmp/ccujrKxR.s:435    .text:0000000000000290 .L0 
     /tmp/ccujrKxR.s:436    .text:0000000000000294 .L0 
     /tmp/ccujrKxR.s:438    .text:0000000000000298 .L0 
     /tmp/ccujrKxR.s:440    .text:000000000000029c .L0 
     /tmp/ccujrKxR.s:442    .text:000000000000029c .L0 
     /tmp/ccujrKxR.s:443    .text:000000000000029c .L0 
     /tmp/ccujrKxR.s:445    .text:00000000000002a8 .L0 
     /tmp/ccujrKxR.s:446    .text:00000000000002a8 .L0 
     /tmp/ccujrKxR.s:448    .text:00000000000002ac .L0 
     /tmp/ccujrKxR.s:450    .text:00000000000002b0 .L0 
     /tmp/ccujrKxR.s:455    .text:00000000000002b0 _GLOBAL__sub_I__ZN9Scheduler16readyThreadQueueE
     /tmp/ccujrKxR.s:458    .text:00000000000002b0 .L0 
     /tmp/ccujrKxR.s:459    .text:00000000000002b0 .L0 
     /tmp/ccujrKxR.s:460    .text:00000000000002b4 .L0 
     /tmp/ccujrKxR.s:463    .text:00000000000002bc .L0 
     /tmp/ccujrKxR.s:464    .text:00000000000002bc .L0 
     /tmp/ccujrKxR.s:466    .text:00000000000002c0 .L0 
     /tmp/ccujrKxR.s:468    .text:00000000000002c0 .L0 
     /tmp/ccujrKxR.s:474    .text:00000000000002d8 .L0 
     /tmp/ccujrKxR.s:476    .text:00000000000002dc .L0 
     /tmp/ccujrKxR.s:477    .text:00000000000002dc .L0 
GAS LISTING /tmp/ccujrKxR.s 			page 16


     /tmp/ccujrKxR.s:479    .text:00000000000002e0 .L0 
     /tmp/ccujrKxR.s:481    .text:00000000000002e4 .L0 
     /tmp/ccujrKxR.s:504    .bss:0000000000000030 _ZN9Scheduler4idleE
     /tmp/ccujrKxR.s:508    .bss:0000000000000038 _ZN9Scheduler6nsleepE
     /tmp/ccujrKxR.s:500    .bss:0000000000000018 _ZN9Scheduler16sleepThreadQueueE
     /tmp/ccujrKxR.s:496    .bss:0000000000000000 _ZN9Scheduler16readyThreadQueueE
     /tmp/ccujrKxR.s:493    .bss:0000000000000000 .LANCHOR0
     /tmp/ccujrKxR.s:515    .text:00000000000002e4 .L0 
     /tmp/ccujrKxR.s:43     .text:000000000000002c .L0 
     /tmp/ccujrKxR.s:86     .text:000000000000005c .L0 
     /tmp/ccujrKxR.s:94     .text:0000000000000068 .L0 
     /tmp/ccujrKxR.s:116    .text:0000000000000088 .L0 
     /tmp/ccujrKxR.s:123    .text:0000000000000098 .L0 
     /tmp/ccujrKxR.s:128    .text:00000000000000a4 .L0 
     /tmp/ccujrKxR.s:143    .text:00000000000000c8 .L0 
     /tmp/ccujrKxR.s:167    .text:00000000000000dc .L0 
     /tmp/ccujrKxR.s:200    .text:0000000000000114 .L0 
     /tmp/ccujrKxR.s:206    .text:0000000000000124 .L0 
     /tmp/ccujrKxR.s:209    .text:000000000000012c .L0 
     /tmp/ccujrKxR.s:235    .text:0000000000000154 .L0 
     /tmp/ccujrKxR.s:270    .text:0000000000000180 .L0 
     /tmp/ccujrKxR.s:286    .text:00000000000001a0 .L0 
     /tmp/ccujrKxR.s:291    .text:00000000000001ac .L0 
     /tmp/ccujrKxR.s:323    .text:00000000000001e4 .L0 
     /tmp/ccujrKxR.s:360    .text:0000000000000214 .L0 
     /tmp/ccujrKxR.s:388    .text:0000000000000248 .L0 
     /tmp/ccujrKxR.s:391    .text:0000000000000250 .L0 
     /tmp/ccujrKxR.s:419    .text:000000000000027c .L0 
     /tmp/ccujrKxR.s:443    .text:000000000000029c .L0 
     /tmp/ccujrKxR.s:31     .text:0000000000000020 .L4
     /tmp/ccujrKxR.s:23     .text:0000000000000014 .L1
     /tmp/ccujrKxR.s:109    .text:0000000000000088 .L6
     /tmp/ccujrKxR.s:146    .text:00000000000000d4 .L10
     /tmp/ccujrKxR.s:141    .text:00000000000000c8 .L12
     /tmp/ccujrKxR.s:95     .text:0000000000000070 .L5
     /tmp/ccujrKxR.s:126    .text:00000000000000a4 .L9
     /tmp/ccujrKxR.s:240    .text:0000000000000168 .L18
     /tmp/ccujrKxR.s:230    .text:0000000000000154 .L15
     /tmp/ccujrKxR.s:207    .text:000000000000012c .L16
     /tmp/ccujrKxR.s:326    .text:00000000000001f0 .L24
     /tmp/ccujrKxR.s:318    .text:00000000000001e4 .L26
     /tmp/ccujrKxR.s:289    .text:00000000000001ac .L23
     /tmp/ccujrKxR.s:301    .text:00000000000001cc .L21
     /tmp/ccujrKxR.s:414    .text:000000000000027c .L28
     /tmp/ccujrKxR.s:389    .text:0000000000000250 .L29
     /tmp/ccujrKxR.s:1672   .debug_abbrev:0000000000000000 .Ldebug_abbrev0
     /tmp/ccujrKxR.s:3153   .debug_str:000000000000065c .LASF105
     /tmp/ccujrKxR.s:3179   .debug_str:00000000000007ea .LASF106
     /tmp/ccujrKxR.s:3139   .debug_str:00000000000005cd .LASF107
     /tmp/ccujrKxR.s:5      .text:0000000000000000 .Ltext0
     /tmp/ccujrKxR.s:511    .text:00000000000002e4 .Letext0
     /tmp/ccujrKxR.s:2953   .debug_line:0000000000000000 .Ldebug_line0
     /tmp/ccujrKxR.s:3087   .debug_str:0000000000000460 .LASF0
     /tmp/ccujrKxR.s:3099   .debug_str:0000000000000498 .LASF1
     /tmp/ccujrKxR.s:3071   .debug_str:00000000000003ef .LASF2
     /tmp/ccujrKxR.s:3041   .debug_str:0000000000000320 .LASF4
     /tmp/ccujrKxR.s:3135   .debug_str:000000000000059c .LASF3
GAS LISTING /tmp/ccujrKxR.s 			page 17


     /tmp/ccujrKxR.s:2969   .debug_str:000000000000008a .LASF5
     /tmp/ccujrKxR.s:3001   .debug_str:00000000000001a7 .LASF6
     /tmp/ccujrKxR.s:3101   .debug_str:00000000000004ab .LASF7
     /tmp/ccujrKxR.s:3085   .debug_str:000000000000044d .LASF8
     /tmp/ccujrKxR.s:3167   .debug_str:000000000000077d .LASF9
     /tmp/ccujrKxR.s:3025   .debug_str:0000000000000285 .LASF10
     /tmp/ccujrKxR.s:3111   .debug_str:00000000000004ed .LASF11
     /tmp/ccujrKxR.s:3157   .debug_str:000000000000072c .LASF12
     /tmp/ccujrKxR.s:2975   .debug_str:00000000000000a7 .LASF13
     /tmp/ccujrKxR.s:2957   .debug_str:000000000000001e .LASF14
     /tmp/ccujrKxR.s:2985   .debug_str:0000000000000110 .LASF15
     /tmp/ccujrKxR.s:3127   .debug_str:0000000000000570 .LASF16
     /tmp/ccujrKxR.s:2995   .debug_str:000000000000017c .LASF17
     /tmp/ccujrKxR.s:3107   .debug_str:00000000000004da .LASF26
     /tmp/ccujrKxR.s:3019   .debug_str:000000000000025b .LASF18
     /tmp/ccujrKxR.s:3105   .debug_str:00000000000004c9 .LASF19
     /tmp/ccujrKxR.s:3097   .debug_str:0000000000000491 .LASF20
     /tmp/ccujrKxR.s:3035   .debug_str:00000000000002df .LASF108
     /tmp/ccujrKxR.s:2983   .debug_str:00000000000000f8 .LASF85
     /tmp/ccujrKxR.s:3171   .debug_str:00000000000007aa .LASF21
     /tmp/ccujrKxR.s:3147   .debug_str:000000000000062d .LASF24
     /tmp/ccujrKxR.s:3109   .debug_str:00000000000004e4 .LASF22
     /tmp/ccujrKxR.s:3169   .debug_str:000000000000078d .LASF109
     /tmp/ccujrKxR.s:3161   .debug_str:0000000000000740 .LASF23
     /tmp/ccujrKxR.s:3137   .debug_str:00000000000005ae .LASF25
     /tmp/ccujrKxR.s:3083   .debug_str:0000000000000448 .LASF83
     /tmp/ccujrKxR.s:3063   .debug_str:00000000000003b3 .LASF27
     /tmp/ccujrKxR.s:3159   .debug_str:000000000000073b .LASF49
     /tmp/ccujrKxR.s:3123   .debug_str:0000000000000554 .LASF28
     /tmp/ccujrKxR.s:3183   .debug_str:0000000000000801 .LASF29
     /tmp/ccujrKxR.s:3079   .debug_str:000000000000041f .LASF110
     /tmp/ccujrKxR.s:2999   .debug_str:00000000000001a2 .LASF30
     /tmp/ccujrKxR.s:3069   .debug_str:00000000000003ea .LASF31
     /tmp/ccujrKxR.s:3039   .debug_str:000000000000031b .LASF32
     /tmp/ccujrKxR.s:3145   .debug_str:000000000000061a .LASF37
     /tmp/ccujrKxR.s:3125   .debug_str:0000000000000559 .LASF34
     /tmp/ccujrKxR.s:3081   .debug_str:000000000000043e .LASF111
     /tmp/ccujrKxR.s:3029   .debug_str:00000000000002a4 .LASF112
     /tmp/ccujrKxR.s:3149   .debug_str:0000000000000646 .LASF33
     /tmp/ccujrKxR.s:3013   .debug_str:0000000000000224 .LASF35
     /tmp/ccujrKxR.s:3151   .debug_str:0000000000000653 .LASF36
     /tmp/ccujrKxR.s:3007   .debug_str:00000000000001fa .LASF38
     /tmp/ccujrKxR.s:3023   .debug_str:000000000000027d .LASF39
     /tmp/ccujrKxR.s:3005   .debug_str:00000000000001de .LASF40
     /tmp/ccujrKxR.s:3155   .debug_str:0000000000000720 .LASF41
     /tmp/ccujrKxR.s:2955   .debug_str:0000000000000000 .LASF42
     /tmp/ccujrKxR.s:2981   .debug_str:00000000000000ee .LASF43
     /tmp/ccujrKxR.s:3055   .debug_str:0000000000000372 .LASF44
     /tmp/ccujrKxR.s:3093   .debug_str:000000000000047c .LASF45
     /tmp/ccujrKxR.s:2963   .debug_str:0000000000000042 .LASF46
     /tmp/ccujrKxR.s:3057   .debug_str:000000000000038d .LASF47
     /tmp/ccujrKxR.s:3049   .debug_str:000000000000033d .LASF48
     /tmp/ccujrKxR.s:2959   .debug_str:000000000000002e .LASF50
     /tmp/ccujrKxR.s:3121   .debug_str:000000000000054f .LASF51
     /tmp/ccujrKxR.s:3045   .debug_str:0000000000000330 .LASF52
     /tmp/ccujrKxR.s:3091   .debug_str:0000000000000476 .LASF53
     /tmp/ccujrKxR.s:3047   .debug_str:0000000000000335 .LASF54
GAS LISTING /tmp/ccujrKxR.s 			page 18


     /tmp/ccujrKxR.s:3095   .debug_str:0000000000000487 .LASF55
     /tmp/ccujrKxR.s:3043   .debug_str:0000000000000327 .LASF56
     /tmp/ccujrKxR.s:3113   .debug_str:00000000000004fc .LASF57
     /tmp/ccujrKxR.s:3141   .debug_str:00000000000005e8 .LASF58
     /tmp/ccujrKxR.s:2973   .debug_str:000000000000009c .LASF59
     /tmp/ccujrKxR.s:3033   .debug_str:00000000000002d4 .LASF60
     /tmp/ccujrKxR.s:3053   .debug_str:0000000000000365 .LASF61
     /tmp/ccujrKxR.s:3173   .debug_str:00000000000007b3 .LASF62
     /tmp/ccujrKxR.s:3027   .debug_str:0000000000000293 .LASF63
     /tmp/ccujrKxR.s:3065   .debug_str:00000000000003bd .LASF64
     /tmp/ccujrKxR.s:3103   .debug_str:00000000000004be .LASF65
     /tmp/ccujrKxR.s:2991   .debug_str:000000000000014e .LASF66
     /tmp/ccujrKxR.s:3073   .debug_str:00000000000003fd .LASF67
     /tmp/ccujrKxR.s:3185   .debug_str:0000000000000806 .LASF68
     /tmp/ccujrKxR.s:3067   .debug_str:00000000000003dd .LASF69
     /tmp/ccujrKxR.s:2967   .debug_str:0000000000000071 .LASF70
     /tmp/ccujrKxR.s:2961   .debug_str:0000000000000036 .LASF73
     /tmp/ccujrKxR.s:2993   .debug_str:0000000000000165 .LASF75
     /tmp/ccujrKxR.s:3129   .debug_str:0000000000000586 .LASF71
     /tmp/ccujrKxR.s:2979   .debug_str:00000000000000d8 .LASF72
     /tmp/ccujrKxR.s:3089   .debug_str:000000000000046d .LASF74
     /tmp/ccujrKxR.s:3015   .debug_str:0000000000000243 .LASF76
     /tmp/ccujrKxR.s:3051   .debug_str:0000000000000357 .LASF77
     /tmp/ccujrKxR.s:3163   .debug_str:000000000000074e .LASF78
     /tmp/ccujrKxR.s:3075   .debug_str:0000000000000409 .LASF79
     /tmp/ccujrKxR.s:3077   .debug_str:000000000000040f .LASF80
     /tmp/ccujrKxR.s:3009   .debug_str:0000000000000217 .LASF81
     /tmp/ccujrKxR.s:3119   .debug_str:0000000000000543 .LASF82
     /tmp/ccujrKxR.s:3011   .debug_str:000000000000021c .LASF84
     /tmp/ccujrKxR.s:3021   .debug_str:000000000000026c .LASF86
     /tmp/ccujrKxR.s:2965   .debug_str:000000000000005f .LASF87
     /tmp/ccujrKxR.s:3059   .debug_str:0000000000000396 .LASF113
     /tmp/ccujrKxR.s:3031   .debug_str:00000000000002bb .LASF114
     /tmp/ccujrKxR.s:3175   .debug_str:00000000000007cf .LASF115
     /tmp/ccujrKxR.s:3037   .debug_str:00000000000002f3 .LASF116
     /tmp/ccujrKxR.s:3017   .debug_str:0000000000000256 .LASF88
     /tmp/ccujrKxR.s:2977   .debug_str:00000000000000b7 .LASF89
     /tmp/ccujrKxR.s:3143   .debug_str:00000000000005f9 .LASF90
     /tmp/ccujrKxR.s:3165   .debug_str:0000000000000767 .LASF91
     /tmp/ccujrKxR.s:3117   .debug_str:000000000000052f .LASF92
     /tmp/ccujrKxR.s:3003   .debug_str:00000000000001ae .LASF93
     /tmp/ccujrKxR.s:456    .text:00000000000002b0 .LFB36
     /tmp/ccujrKxR.s:482    .text:00000000000002e4 .LFE36
     /tmp/ccujrKxR.s:472    .text:00000000000002d4 .LVL37
     /tmp/ccujrKxR.s:3115   .debug_str:0000000000000505 .LASF94
     /tmp/ccujrKxR.s:9      .text:0000000000000000 .LFB35
     /tmp/ccujrKxR.s:62     .text:0000000000000048 .LFE35
     /tmp/ccujrKxR.s:3061   .debug_str:00000000000003a4 .LASF95
     /tmp/ccujrKxR.s:2971   .debug_str:0000000000000091 .LASF96
     /tmp/ccujrKxR.s:38     .text:000000000000002c .LBB13
     /tmp/ccujrKxR.s:49     .text:000000000000003c .LBE13
     /tmp/ccujrKxR.s:2674   .debug_loc:0000000000000000 .LLST0
     /tmp/ccujrKxR.s:50     .text:000000000000003c .LBB16
     /tmp/ccujrKxR.s:58     .text:0000000000000044 .LBE16
     /tmp/ccujrKxR.s:2683   .debug_loc:000000000000002c .LLST1
     /tmp/ccujrKxR.s:3181   .debug_str:00000000000007fc .LASF97
     /tmp/ccujrKxR.s:2989   .debug_str:000000000000012f .LASF99
GAS LISTING /tmp/ccujrKxR.s 			page 19


     /tmp/ccujrKxR.s:3131   .debug_str:0000000000000591 .LASF98
     /tmp/ccujrKxR.s:2987   .debug_str:000000000000011c .LASF100
     /tmp/ccujrKxR.s:432    .text:0000000000000290 .LFB25
     /tmp/ccujrKxR.s:451    .text:00000000000002b0 .LFE25
     /tmp/ccujrKxR.s:341    .text:00000000000001f8 .LFB24
     /tmp/ccujrKxR.s:426    .text:0000000000000290 .LFE24
     /tmp/ccujrKxR.s:2692   .debug_loc:0000000000000058 .LLST16
     /tmp/ccujrKxR.s:366    .text:0000000000000228 .LBB49
     /tmp/ccujrKxR.s:2933   .debug_ranges:0000000000000000 .Ldebug_ranges0
     /tmp/ccujrKxR.s:2714   .debug_loc:00000000000000b7 .LLST17
     /tmp/ccujrKxR.s:2729   .debug_loc:0000000000000100 .LLST18
     /tmp/ccujrKxR.s:373    .text:0000000000000234 .LBB51
     /tmp/ccujrKxR.s:380    .text:000000000000023c .LBE51
     /tmp/ccujrKxR.s:2744   .debug_loc:0000000000000148 .LLST19
     /tmp/ccujrKxR.s:2752   .debug_loc:000000000000016c .LLST20
     /tmp/ccujrKxR.s:2759   .debug_loc:000000000000018f .LLST21
     /tmp/ccujrKxR.s:372    .text:0000000000000234 .LVL32
     /tmp/ccujrKxR.s:255    .text:000000000000016c .LFB23
     /tmp/ccujrKxR.s:335    .text:00000000000001f8 .LFE23
     /tmp/ccujrKxR.s:276    .text:0000000000000194 .LBB40
     /tmp/ccujrKxR.s:2766   .debug_loc:00000000000001b2 .LLST13
     /tmp/ccujrKxR.s:2781   .debug_loc:00000000000001fa .LLST14
     /tmp/ccujrKxR.s:2792   .debug_loc:0000000000000230 .LLST15
     /tmp/ccujrKxR.s:300    .text:00000000000001cc .LVL25
     /tmp/ccujrKxR.s:161    .text:00000000000000dc .LFB22
     /tmp/ccujrKxR.s:249    .text:000000000000016c .LFE22
     /tmp/ccujrKxR.s:2799   .debug_loc:0000000000000253 .LLST6
     /tmp/ccujrKxR.s:184    .text:0000000000000100 .LBB32
     /tmp/ccujrKxR.s:2825   .debug_loc:00000000000002c5 .LLST7
     /tmp/ccujrKxR.s:2840   .debug_loc:000000000000030e .LLST8
     /tmp/ccujrKxR.s:2855   .debug_loc:0000000000000356 .LLST9
     /tmp/ccujrKxR.s:191    .text:000000000000010c .LBB34
     /tmp/ccujrKxR.s:198    .text:0000000000000114 .LBE34
     /tmp/ccujrKxR.s:2862   .debug_loc:0000000000000379 .LLST10
     /tmp/ccujrKxR.s:2870   .debug_loc:000000000000039d .LLST11
     /tmp/ccujrKxR.s:2877   .debug_loc:00000000000003c0 .LLST12
     /tmp/ccujrKxR.s:190    .text:000000000000010c .LVL16
     /tmp/ccujrKxR.s:68     .text:0000000000000048 .LFB21
     /tmp/ccujrKxR.s:155    .text:00000000000000dc .LFE21
     /tmp/ccujrKxR.s:83     .text:000000000000005c .LBB23
     /tmp/ccujrKxR.s:89     .text:0000000000000064 .LBE23
     /tmp/ccujrKxR.s:2884   .debug_loc:00000000000003e3 .LLST2
     /tmp/ccujrKxR.s:113    .text:0000000000000088 .LBB25
     /tmp/ccujrKxR.s:151    .text:00000000000000d8 .LBE25
     /tmp/ccujrKxR.s:2893   .debug_loc:000000000000040f .LLST3
     /tmp/ccujrKxR.s:2902   .debug_loc:000000000000043b .LLST4
     /tmp/ccujrKxR.s:2913   .debug_loc:0000000000000471 .LLST5
     /tmp/ccujrKxR.s:137    .text:00000000000000c4 .LVL9
     /tmp/ccujrKxR.s:3133   .debug_str:0000000000000596 .LASF101
     /tmp/ccujrKxR.s:3177   .debug_str:00000000000007dd .LASF103
     /tmp/ccujrKxR.s:3187   .debug_str:000000000000081d .LASF102
     /tmp/ccujrKxR.s:2997   .debug_str:0000000000000192 .LASF104
     /tmp/ccujrKxR.s:37     .text:000000000000002c .LVL1
     /tmp/ccujrKxR.s:46     .text:000000000000003c .LVL2
     /tmp/ccujrKxR.s:55     .text:0000000000000044 .LVL3
     /tmp/ccujrKxR.s:344    .text:00000000000001f8 .LVL29
     /tmp/ccujrKxR.s:370    .text:000000000000022c .LVL31
GAS LISTING /tmp/ccujrKxR.s 			page 20


     /tmp/ccujrKxR.s:409    .text:0000000000000274 .LVL35
     /tmp/ccujrKxR.s:413    .text:000000000000027c .LVL36
     /tmp/ccujrKxR.s:365    .text:0000000000000228 .LVL30
     /tmp/ccujrKxR.s:395    .text:0000000000000264 .LVL34
     /tmp/ccujrKxR.s:378    .text:000000000000023c .LVL33
     /tmp/ccujrKxR.s:275    .text:0000000000000194 .LVL22
     /tmp/ccujrKxR.s:317    .text:00000000000001e4 .LVL26
     /tmp/ccujrKxR.s:329    .text:00000000000001f4 .LVL28
     /tmp/ccujrKxR.s:282    .text:000000000000019c .LVL23
     /tmp/ccujrKxR.s:325    .text:00000000000001f0 .LVL27
     /tmp/ccujrKxR.s:297    .text:00000000000001c4 .LVL24
     /tmp/ccujrKxR.s:164    .text:00000000000000dc .LVL13
     /tmp/ccujrKxR.s:188    .text:0000000000000104 .LVL15
     /tmp/ccujrKxR.s:225    .text:000000000000014c .LVL19
     /tmp/ccujrKxR.s:229    .text:0000000000000154 .LVL20
     /tmp/ccujrKxR.s:239    .text:0000000000000168 .LVL21
     /tmp/ccujrKxR.s:183    .text:0000000000000100 .LVL14
     /tmp/ccujrKxR.s:213    .text:0000000000000140 .LVL18
     /tmp/ccujrKxR.s:196    .text:0000000000000114 .LVL17
     /tmp/ccujrKxR.s:82     .text:000000000000005c .LVL4
     /tmp/ccujrKxR.s:87     .text:0000000000000064 .LVL5
     /tmp/ccujrKxR.s:112    .text:0000000000000088 .LVL6
     /tmp/ccujrKxR.s:149    .text:00000000000000d8 .LVL12
     /tmp/ccujrKxR.s:119    .text:0000000000000094 .LVL7
     /tmp/ccujrKxR.s:140    .text:00000000000000c8 .LVL10
     /tmp/ccujrKxR.s:145    .text:00000000000000d4 .LVL11
     /tmp/ccujrKxR.s:134    .text:00000000000000bc .LVL8
     /tmp/ccujrKxR.s:516    .debug_info:0000000000000000 .Ldebug_info0
     /tmp/ccujrKxR.s:215    .text:0000000000000140 .LBE32
     /tmp/ccujrKxR.s:232    .text:0000000000000154 .LBB37
     /tmp/ccujrKxR.s:247    .text:000000000000016c .LBE37
     /tmp/ccujrKxR.s:303    .text:00000000000001cc .LBE40
     /tmp/ccujrKxR.s:320    .text:00000000000001e4 .LBB43
     /tmp/ccujrKxR.s:331    .text:00000000000001f4 .LBE43
     /tmp/ccujrKxR.s:397    .text:0000000000000264 .LBE49
     /tmp/ccujrKxR.s:416    .text:000000000000027c .LBB54
     /tmp/ccujrKxR.s:424    .text:0000000000000290 .LBE54

UNDEFINED SYMBOLS
_ZdlPv
_Znwm
