GAS LISTING /tmp/ccBwTfwM.s 			page 1


   1              		.file	"scheduler.cpp"
   2              		.option nopic
   3              		.option norelax
   4              		.attribute arch, "rv64i2p0_m2p0_a2p0"
   5              		.attribute unaligned_access, 0
   6              		.attribute stack_align, 16
   7              		.text
   8              	.Ltext0:
   9              		.align	2
  11              	_Z41__static_initialization_and_destruction_0ii:
  12              	.LFB18:
  13              		.file 1 "src/scheduler.cpp"
   1:src/scheduler.cpp **** #include "../h/scheduler.hpp"
   2:src/scheduler.cpp **** 
   3:src/scheduler.cpp **** List<CCB> Scheduler::readyCoroutineQueue;
   4:src/scheduler.cpp **** 
   5:src/scheduler.cpp **** CCB *Scheduler::get() { return readyCoroutineQueue.removeFirst(); }
   6:src/scheduler.cpp **** void Scheduler::put(CCB *ccb) { readyCoroutineQueue.addLast(ccb); }...
  14              		.loc 1 6 67
  15              		.cfi_startproc
  16              	.LVL0:
  17 0000 130101FF 		addi	sp,sp,-16
  18              		.cfi_def_cfa_offset 16
  19 0004 23348100 		sd	s0,8(sp)
  20              		.cfi_offset 8, -8
  21 0008 13040101 		addi	s0,sp,16
  22              		.cfi_def_cfa 8, 0
  23              		.loc 1 6 67 is_stmt 0
  24 000c 93071000 		li	a5,1
  25 0010 6308F500 		beq	a0,a5,.L4
  26              	.L1:
  27 0014 03348100 		ld	s0,8(sp)
  28              		.cfi_remember_state
  29              		.cfi_restore 8
  30              		.cfi_def_cfa 2, 16
  31 0018 13010101 		addi	sp,sp,16
  32              		.cfi_def_cfa_offset 0
  33 001c 67800000 		jr	ra
  34              	.L4:
  35              		.cfi_restore_state
  36              		.loc 1 6 67 discriminator 1
  37 0020 B7070100 		li	a5,65536
  38 0024 9387F7FF 		addi	a5,a5,-1
  39 0028 E396F5FE 		bne	a1,a5,.L1
  40              	.LVL1:
  41              	.LBB15:
  42              	.LBB16:
  43              	.LBB17:
  44              		.file 2 "src/../h/list.hpp"
   1:src/../h/list.hpp **** #ifndef list_hpp
   2:src/../h/list.hpp **** #define list_hpp
   3:src/../h/list.hpp **** // Vezbe 7
   4:src/../h/list.hpp **** template <typename T> class List {
   5:src/../h/list.hpp **** 
   6:src/../h/list.hpp **** private:
   7:src/../h/list.hpp ****   struct Elem {
   8:src/../h/list.hpp ****     T *data;
GAS LISTING /tmp/ccBwTfwM.s 			page 2


   9:src/../h/list.hpp ****     Elem *next;
  10:src/../h/list.hpp **** 
  11:src/../h/list.hpp ****     Elem(T *data, Elem *next) : data(data), next(next) {}
  12:src/../h/list.hpp ****   };
  13:src/../h/list.hpp ****   Elem *head, *tail;
  14:src/../h/list.hpp **** 
  15:src/../h/list.hpp **** public:
  16:src/../h/list.hpp ****   List() : head(0), tail(0) {}
  45              		.loc 2 16 27
  46 002c 97070000 		lla	a5,.LANCHOR0
  46      93870700 
  47 0034 23B00700 		sd	zero,0(a5)
  48 0038 23B40700 		sd	zero,8(a5)
  49              	.LVL2:
  50              	.LBE17:
  51              	.LBE16:
  52              	.LBE15:
  53              		.loc 1 6 67
  54 003c 6FF09FFD 		j	.L1
  55              		.cfi_endproc
  56              	.LFE18:
  58              		.align	2
  59              		.globl	_ZN9Scheduler3getEv
  61              	_ZN9Scheduler3getEv:
  62              	.LFB8:
   5:src/scheduler.cpp **** CCB *Scheduler::get() { return readyCoroutineQueue.removeFirst(); }
  63              		.loc 1 5 23 is_stmt 1
  64              		.cfi_startproc
  65 0040 130101FE 		addi	sp,sp,-32
  66              		.cfi_def_cfa_offset 32
  67 0044 233C1100 		sd	ra,24(sp)
  68 0048 23388100 		sd	s0,16(sp)
  69 004c 23349100 		sd	s1,8(sp)
  70              		.cfi_offset 1, -8
  71              		.cfi_offset 8, -16
  72              		.cfi_offset 9, -24
  73 0050 13040102 		addi	s0,sp,32
  74              		.cfi_def_cfa 8, 0
   5:src/scheduler.cpp **** CCB *Scheduler::get() { return readyCoroutineQueue.removeFirst(); }
  75              		.loc 1 5 25
  76              	.LVL3:
  77              	.LBB18:
  78              	.LBB19:
  17:src/../h/list.hpp ****   List(const List<T> &) = delete;
  18:src/../h/list.hpp ****   List<T> &operator=(const List<T> &) = delete;
  19:src/../h/list.hpp **** 
  20:src/../h/list.hpp ****   void addFirst(T *data) {
  21:src/../h/list.hpp ****     Elem *elem = new Elem(data, head);
  22:src/../h/list.hpp ****     head = elem;
  23:src/../h/list.hpp ****     if (!tail) {
  24:src/../h/list.hpp ****       tail = head;
  25:src/../h/list.hpp ****     }
  26:src/../h/list.hpp ****   }
  27:src/../h/list.hpp ****   void addLast(T *data) {
  28:src/../h/list.hpp ****     Elem *elem = new Elem(data, 0);
  29:src/../h/list.hpp ****     if (tail) {
  30:src/../h/list.hpp ****       tail->next = elem;
GAS LISTING /tmp/ccBwTfwM.s 			page 3


  31:src/../h/list.hpp ****       tail = elem;
  32:src/../h/list.hpp ****     } else {
  33:src/../h/list.hpp ****       head = tail = elem;
  34:src/../h/list.hpp ****     }
  35:src/../h/list.hpp ****   }
  36:src/../h/list.hpp ****   T *removeFirst() {
  37:src/../h/list.hpp ****     if (!head) {
  79              		.loc 2 37 10 is_stmt 0
  80 0054 17050000 		ld	a0,.LANCHOR0
  80      03350500 
  81              		.loc 2 37 5
  82 005c 63020504 		beqz	a0,.L8
  83              	.LVL4:
  38:src/../h/list.hpp ****       return 0;
  39:src/../h/list.hpp ****     }
  40:src/../h/list.hpp ****     Elem *elem = head;
  41:src/../h/list.hpp ****     head = head->next;
  84              		.loc 2 41 18
  85 0060 83378500 		ld	a5,8(a0)
  86              		.loc 2 41 5
  87 0064 17070000 		sd	a5,.LANCHOR0,a4
  87      2330F700 
  42:src/../h/list.hpp ****     if (!head) {
  88              		.loc 2 42 5
  89 006c 63840702 		beqz	a5,.L10
  90              	.L7:
  43:src/../h/list.hpp ****       tail = 0;
  44:src/../h/list.hpp ****     }
  45:src/../h/list.hpp ****     T *ret = elem->data;
  91              		.loc 2 45 8
  92 0070 83340500 		ld	s1,0(a0)
  93              	.LVL5:
  46:src/../h/list.hpp ****     delete elem;
  94              		.loc 2 46 5
  95 0074 97000000 		call	_ZdlPv
  95      E7800000 
  96              	.LVL6:
  97              	.L5:
  98              	.LBE19:
  99              	.LBE18:
   5:src/scheduler.cpp **** CCB *Scheduler::get() { return readyCoroutineQueue.removeFirst(); }
 100              		.loc 1 5 67
 101 007c 13850400 		mv	a0,s1
 102 0080 83308101 		ld	ra,24(sp)
 103              		.cfi_remember_state
 104              		.cfi_restore 1
 105 0084 03340101 		ld	s0,16(sp)
 106              		.cfi_restore 8
 107              		.cfi_def_cfa 2, 32
 108 0088 83348100 		ld	s1,8(sp)
 109              		.cfi_restore 9
 110 008c 13010102 		addi	sp,sp,32
 111              		.cfi_def_cfa_offset 0
 112 0090 67800000 		jr	ra
 113              	.LVL7:
 114              	.L10:
 115              		.cfi_restore_state
GAS LISTING /tmp/ccBwTfwM.s 			page 4


 116              	.LBB21:
 117              	.LBB20:
  43:src/../h/list.hpp ****       tail = 0;
 118              		.loc 2 43 7
 119 0094 97070000 		sd	zero,.LANCHOR0+8,a5
 119      23B00700 
 120 009c 6FF05FFD 		j	.L7
 121              	.LVL8:
 122              	.L8:
  38:src/../h/list.hpp ****     }
 123              		.loc 2 38 14
 124 00a0 93040500 		mv	s1,a0
 125              	.LVL9:
 126              	.LBE20:
 127              	.LBE21:
   5:src/scheduler.cpp **** CCB *Scheduler::get() { return readyCoroutineQueue.removeFirst(); }
 128              		.loc 1 5 64
 129 00a4 6FF09FFD 		j	.L5
 130              		.cfi_endproc
 131              	.LFE8:
 133              		.align	2
 134              		.globl	_ZN9Scheduler3putEP3CCB
 136              	_ZN9Scheduler3putEP3CCB:
 137              	.LFB9:
 138              		.loc 1 6 31 is_stmt 1
 139              		.cfi_startproc
 140              	.LVL10:
 141 00a8 130101FE 		addi	sp,sp,-32
 142              		.cfi_def_cfa_offset 32
 143 00ac 233C1100 		sd	ra,24(sp)
 144 00b0 23388100 		sd	s0,16(sp)
 145 00b4 23349100 		sd	s1,8(sp)
 146              		.cfi_offset 1, -8
 147              		.cfi_offset 8, -16
 148              		.cfi_offset 9, -24
 149 00b8 13040102 		addi	s0,sp,32
 150              		.cfi_def_cfa 8, 0
 151 00bc 93040500 		mv	s1,a0
 152              		.loc 1 6 33
 153              	.LVL11:
 154              	.LBB22:
 155              	.LBB23:
  28:src/../h/list.hpp ****     if (tail) {
 156              		.loc 2 28 18 is_stmt 0
 157 00c0 13050001 		li	a0,16
 158              	.LVL12:
 159 00c4 97000000 		call	_Znwm
 159      E7800000 
 160              	.LVL13:
 161              	.LBB24:
 162              	.LBB25:
  11:src/../h/list.hpp ****   };
 163              		.loc 2 11 54
 164 00cc 23309500 		sd	s1,0(a0)
 165 00d0 23340500 		sd	zero,8(a0)
 166              	.LVL14:
 167              	.LBE25:
GAS LISTING /tmp/ccBwTfwM.s 			page 5


 168              	.LBE24:
  29:src/../h/list.hpp ****       tail->next = elem;
 169              		.loc 2 29 9
 170 00d4 97070000 		ld	a5,.LANCHOR0+8
 170      83B70700 
  29:src/../h/list.hpp ****       tail->next = elem;
 171              		.loc 2 29 5
 172 00dc 63820702 		beqz	a5,.L12
  30:src/../h/list.hpp ****       tail = elem;
 173              		.loc 2 30 7
 174 00e0 23B4A700 		sd	a0,8(a5)
  31:src/../h/list.hpp ****     } else {
 175              		.loc 2 31 7
 176 00e4 97070000 		sd	a0,.LANCHOR0+8,a5
 176      23B0A700 
 177              	.LVL15:
 178              	.L11:
 179              	.LBE23:
 180              	.LBE22:
 181              		.loc 1 6 67
 182 00ec 83308101 		ld	ra,24(sp)
 183              		.cfi_remember_state
 184              		.cfi_restore 1
 185 00f0 03340101 		ld	s0,16(sp)
 186              		.cfi_restore 8
 187              		.cfi_def_cfa 2, 32
 188 00f4 83348100 		ld	s1,8(sp)
 189              		.cfi_restore 9
 190              	.LVL16:
 191 00f8 13010102 		addi	sp,sp,32
 192              		.cfi_def_cfa_offset 0
 193 00fc 67800000 		jr	ra
 194              	.LVL17:
 195              	.L12:
 196              		.cfi_restore_state
 197              	.LBB27:
 198              	.LBB26:
  33:src/../h/list.hpp ****     }
 199              		.loc 2 33 7
 200 0100 97070000 		lla	a5,.LANCHOR0
 200      93870700 
 201 0108 23B4A700 		sd	a0,8(a5)
 202 010c 23B0A700 		sd	a0,0(a5)
 203              	.LVL18:
 204              	.LBE26:
 205              	.LBE27:
 206              		.loc 1 6 67
 207 0110 6FF0DFFD 		j	.L11
 208              		.cfi_endproc
 209              	.LFE9:
 211              		.align	2
 213              	_GLOBAL__sub_I__ZN9Scheduler19readyCoroutineQueueE:
 214              	.LFB19:
 215              		.loc 1 6 67 is_stmt 1
 216              		.cfi_startproc
 217 0114 130101FF 		addi	sp,sp,-16
 218              		.cfi_def_cfa_offset 16
GAS LISTING /tmp/ccBwTfwM.s 			page 6


 219 0118 23341100 		sd	ra,8(sp)
 220 011c 23308100 		sd	s0,0(sp)
 221              		.cfi_offset 1, -8
 222              		.cfi_offset 8, -16
 223 0120 13040101 		addi	s0,sp,16
 224              		.cfi_def_cfa 8, 0
 225              		.loc 1 6 67 is_stmt 0
 226 0124 B7050100 		li	a1,65536
 227 0128 9385F5FF 		addi	a1,a1,-1
 228 012c 13051000 		li	a0,1
 229 0130 97000000 		call	_Z41__static_initialization_and_destruction_0ii
 229      E7800000 
 230              	.LVL19:
 231 0138 83308100 		ld	ra,8(sp)
 232              		.cfi_restore 1
 233 013c 03340100 		ld	s0,0(sp)
 234              		.cfi_restore 8
 235              		.cfi_def_cfa 2, 16
 236 0140 13010101 		addi	sp,sp,16
 237              		.cfi_def_cfa_offset 0
 238 0144 67800000 		jr	ra
 239              		.cfi_endproc
 240              	.LFE19:
 242              		.section	.init_array,"aw"
 243              		.align	3
 244 0000 00000000 		.dword	_GLOBAL__sub_I__ZN9Scheduler19readyCoroutineQueueE
 244      00000000 
 245              		.globl	_ZN9Scheduler19readyCoroutineQueueE
 246              		.bss
 247              		.align	3
 248              		.set	.LANCHOR0,. + 0
 251              	_ZN9Scheduler19readyCoroutineQueueE:
 252 0000 00000000 		.zero	16
 252      00000000 
 252      00000000 
 252      00000000 
 253              		.text
 254              	.Letext0:
 255              		.file 3 "src/../h/scheduler.hpp"
GAS LISTING /tmp/ccBwTfwM.s 			page 7

