GAS LISTING /tmp/cccldDGL.s 			page 1


   1              		.file	"semaphore.cpp"
   2              		.option pic
   3              		.option norelax
   4              		.text
   5              	.Ltext0:
   6              		.align	2
   7              		.globl	_ZN9Semaphore8putBlockEP3TCB
   9              	_ZN9Semaphore8putBlockEP3TCB:
  10              	.LFB25:
  11              		.file 1 "src/semaphore.cpp"
   1:src/semaphore.cpp **** #include "../h/semaphore.hpp"
   2:src/semaphore.cpp **** #include "../h/tcb.hpp"
   3:src/semaphore.cpp **** #include "../h/scheduler.hpp"
   4:src/semaphore.cpp **** //int Semaphore::sem_open(int init){}
   5:src/semaphore.cpp **** //int Semaphore::sem_close(){}
   6:src/semaphore.cpp **** 
   7:src/semaphore.cpp **** void Semaphore::putBlock(TCB *tcb){blockedQueue.addLast(tcb);}
  12              		.loc 1 7 35
  13              		.cfi_startproc
  14              	.LVL0:
  15 0000 130101FD 		addi	sp,sp,-48
  16              		.cfi_def_cfa_offset 48
  17 0004 23341102 		sd	ra,40(sp)
  18 0008 23308102 		sd	s0,32(sp)
  19 000c 233C9100 		sd	s1,24(sp)
  20 0010 23382101 		sd	s2,16(sp)
  21 0014 23343101 		sd	s3,8(sp)
  22              		.cfi_offset 1, -8
  23              		.cfi_offset 8, -16
  24              		.cfi_offset 9, -24
  25              		.cfi_offset 18, -32
  26              		.cfi_offset 19, -40
  27 0018 13040103 		addi	s0,sp,48
  28              		.cfi_def_cfa 8, 0
  29 001c 13090500 		mv	s2,a0
  30 0020 93890500 		mv	s3,a1
  31              		.loc 1 7 36
  32              		.loc 1 7 56 is_stmt 0
  33 0024 93048500 		addi	s1,a0,8
  34              	.LVL1:
  35              	.LBB10:
  36              	.LBB11:
  37              		.file 2 "src/../h/../h/list.hpp"
   1:src/../h/../h/list.hpp **** #ifndef list_hpp
   2:src/../h/../h/list.hpp **** #define list_hpp
   3:src/../h/../h/list.hpp **** // Vezbe 7
   4:src/../h/../h/list.hpp **** template <typename T> class List {
   5:src/../h/../h/list.hpp **** 
   6:src/../h/../h/list.hpp **** private:
   7:src/../h/../h/list.hpp ****   struct Elem {
   8:src/../h/../h/list.hpp ****     T *data;
   9:src/../h/../h/list.hpp ****     Elem *next;
  10:src/../h/../h/list.hpp **** 
  11:src/../h/../h/list.hpp ****     Elem(T *data, Elem *next) : data(data), next(next) {}
  12:src/../h/../h/list.hpp ****   };
  13:src/../h/../h/list.hpp ****   Elem *head, *tail;
  14:src/../h/../h/list.hpp ****   uint64 n;
GAS LISTING /tmp/cccldDGL.s 			page 2


  15:src/../h/../h/list.hpp **** public:
  16:src/../h/../h/list.hpp ****   List() : head(0), tail(0) {}
  17:src/../h/../h/list.hpp ****   List(const List<T> &) = delete;
  18:src/../h/../h/list.hpp ****   List<T> &operator=(const List<T> &) = delete;
  19:src/../h/../h/list.hpp ****   uint64 getNumOfElem(){ return n; }
  20:src/../h/../h/list.hpp ****   void addFirst(T *data) {
  21:src/../h/../h/list.hpp ****     Elem *elem = new Elem(data, head);
  22:src/../h/../h/list.hpp ****     head = elem;
  23:src/../h/../h/list.hpp ****     n++;
  24:src/../h/../h/list.hpp ****     if (!tail) {
  25:src/../h/../h/list.hpp ****       tail = head;
  26:src/../h/../h/list.hpp ****     }
  27:src/../h/../h/list.hpp ****   }
  28:src/../h/../h/list.hpp ****   void addLast(T *data) {
  29:src/../h/../h/list.hpp ****     Elem *elem = new Elem(data, 0);
  38              		.loc 2 29 18
  39 0028 13050001 		li	a0,16
  40              	.LVL2:
  41 002c 97000000 		call	_Znwm@plt
  41      E7800000 
  42              	.LVL3:
  43              	.LBB12:
  44              	.LBB13:
  11:src/../h/../h/list.hpp ****   };
  45              		.loc 2 11 54
  46 0034 23303501 		sd	s3,0(a0)
  47 0038 23340500 		sd	zero,8(a0)
  48              	.LVL4:
  49              	.LBE13:
  50              	.LBE12:
  30:src/../h/../h/list.hpp ****     if (tail) {
  51              		.loc 2 30 9
  52 003c 83B78400 		ld	a5,8(s1)
  53              		.loc 2 30 5
  54 0040 638A0702 		beqz	a5,.L2
  31:src/../h/../h/list.hpp ****       tail->next = elem;
  55              		.loc 2 31 7
  56 0044 23B4A700 		sd	a0,8(a5)
  32:src/../h/../h/list.hpp ****       tail = elem;
  57              		.loc 2 32 7
  58 0048 23B4A400 		sd	a0,8(s1)
  59              	.L3:
  33:src/../h/../h/list.hpp ****     } else {
  34:src/../h/../h/list.hpp ****       head = tail = elem;
  35:src/../h/../h/list.hpp ****     }
  36:src/../h/../h/list.hpp ****     n++;
  60              		.loc 2 36 5
  61 004c 83B70401 		ld	a5,16(s1)
  62 0050 93871700 		addi	a5,a5,1
  63 0054 23B8F400 		sd	a5,16(s1)
  64              	.LVL5:
  65              	.LBE11:
  66              	.LBE10:
  67              		.loc 1 7 62
  68 0058 83308102 		ld	ra,40(sp)
  69              		.cfi_remember_state
  70              		.cfi_restore 1
GAS LISTING /tmp/cccldDGL.s 			page 3


  71 005c 03340102 		ld	s0,32(sp)
  72              		.cfi_restore 8
  73              		.cfi_def_cfa 2, 48
  74 0060 83348101 		ld	s1,24(sp)
  75              		.cfi_restore 9
  76 0064 03390101 		ld	s2,16(sp)
  77              		.cfi_restore 18
  78              	.LVL6:
  79 0068 83398100 		ld	s3,8(sp)
  80              		.cfi_restore 19
  81              	.LVL7:
  82 006c 13010103 		addi	sp,sp,48
  83              		.cfi_def_cfa_offset 0
  84 0070 67800000 		jr	ra
  85              	.LVL8:
  86              	.L2:
  87              		.cfi_restore_state
  88              	.LBB15:
  89              	.LBB14:
  34:src/../h/../h/list.hpp ****     }
  90              		.loc 2 34 7
  91 0074 23B4A400 		sd	a0,8(s1)
  92 0078 2334A900 		sd	a0,8(s2)
  93 007c 6FF01FFD 		j	.L3
  94              	.LBE14:
  95              	.LBE15:
  96              		.cfi_endproc
  97              	.LFE25:
  99              		.align	2
 100              		.globl	_ZN9Semaphore8getBlockEv
 102              	_ZN9Semaphore8getBlockEv:
 103              	.LFB26:
   8:src/semaphore.cpp **** TCB *Semaphore::getBlock(){return blockedQueue.removeFirst();}
 104              		.loc 1 8 27 is_stmt 1
 105              		.cfi_startproc
 106              	.LVL9:
 107 0080 130101FE 		addi	sp,sp,-32
 108              		.cfi_def_cfa_offset 32
 109 0084 233C1100 		sd	ra,24(sp)
 110 0088 23388100 		sd	s0,16(sp)
 111 008c 23349100 		sd	s1,8(sp)
 112              		.cfi_offset 1, -8
 113              		.cfi_offset 8, -16
 114              		.cfi_offset 9, -24
 115 0090 13040102 		addi	s0,sp,32
 116              		.cfi_def_cfa 8, 0
 117 0094 93070500 		mv	a5,a0
 118              		.loc 1 8 28
 119              		.loc 1 8 59 is_stmt 0
 120 0098 13078500 		addi	a4,a0,8
 121              	.LVL10:
 122              	.LBB18:
 123              	.LBB19:
  37:src/../h/../h/list.hpp ****   }
  38:src/../h/../h/list.hpp ****   T *removeFirst() {
  39:src/../h/../h/list.hpp ****     if (!head) {
 124              		.loc 2 39 10
GAS LISTING /tmp/cccldDGL.s 			page 4


 125 009c 03358500 		ld	a0,8(a0)
 126              	.LVL11:
 127              		.loc 2 39 5
 128 00a0 63040504 		beqz	a0,.L8
 129              	.LVL12:
  40:src/../h/../h/list.hpp ****       return 0;
  41:src/../h/../h/list.hpp ****     }
  42:src/../h/../h/list.hpp ****     Elem *elem = head;
  43:src/../h/../h/list.hpp ****     head = head->next;
 130              		.loc 2 43 18
 131 00a4 83368500 		ld	a3,8(a0)
 132              		.loc 2 43 5
 133 00a8 23B4D700 		sd	a3,8(a5)
  44:src/../h/../h/list.hpp ****     if (!head) {
 134              		.loc 2 44 5
 135 00ac 638A0602 		beqz	a3,.L10
 136              	.L7:
  45:src/../h/../h/list.hpp ****       tail = 0;
  46:src/../h/../h/list.hpp ****     }
  47:src/../h/../h/list.hpp ****     n--;
 137              		.loc 2 47 5
 138 00b0 83370701 		ld	a5,16(a4)
 139              	.LVL13:
 140 00b4 9387F7FF 		addi	a5,a5,-1
 141 00b8 2338F700 		sd	a5,16(a4)
  48:src/../h/../h/list.hpp ****     T *ret = elem->data;
 142              		.loc 2 48 8
 143 00bc 83340500 		ld	s1,0(a0)
 144              	.LVL14:
  49:src/../h/../h/list.hpp ****     delete elem;
 145              		.loc 2 49 5
 146 00c0 97000000 		call	_ZdlPv@plt
 146      E7800000 
 147              	.LVL15:
 148              	.L5:
 149              	.LBE19:
 150              	.LBE18:
 151              		.loc 1 8 62
 152 00c8 13850400 		mv	a0,s1
 153 00cc 83308101 		ld	ra,24(sp)
 154              		.cfi_remember_state
 155              		.cfi_restore 1
 156 00d0 03340101 		ld	s0,16(sp)
 157              		.cfi_restore 8
 158              		.cfi_def_cfa 2, 32
 159 00d4 83348100 		ld	s1,8(sp)
 160              		.cfi_restore 9
 161 00d8 13010102 		addi	sp,sp,32
 162              		.cfi_def_cfa_offset 0
 163 00dc 67800000 		jr	ra
 164              	.LVL16:
 165              	.L10:
 166              		.cfi_restore_state
 167              	.LBB21:
 168              	.LBB20:
  45:src/../h/../h/list.hpp ****       tail = 0;
 169              		.loc 2 45 7
GAS LISTING /tmp/cccldDGL.s 			page 5


 170 00e0 23340700 		sd	zero,8(a4)
 171 00e4 6FF0DFFC 		j	.L7
 172              	.LVL17:
 173              	.L8:
  40:src/../h/../h/list.hpp ****     }
 174              		.loc 2 40 14
 175 00e8 93040500 		mv	s1,a0
 176              	.LVL18:
 177              	.LBE20:
 178              	.LBE21:
 179              		.loc 1 8 60
 180 00ec 6FF0DFFD 		j	.L5
 181              		.cfi_endproc
 182              	.LFE26:
 184              		.align	2
 185              		.globl	_ZN9Semaphore9sem_blockEv
 187              	_ZN9Semaphore9sem_blockEv:
 188              	.LFB27:
   9:src/semaphore.cpp **** 
  10:src/semaphore.cpp **** void Semaphore::sem_block(){
 189              		.loc 1 10 28 is_stmt 1
 190              		.cfi_startproc
 191              	.LVL19:
 192 00f0 130101FE 		addi	sp,sp,-32
 193              		.cfi_def_cfa_offset 32
 194 00f4 233C1100 		sd	ra,24(sp)
 195 00f8 23388100 		sd	s0,16(sp)
 196 00fc 23349100 		sd	s1,8(sp)
 197 0100 23302101 		sd	s2,0(sp)
 198              		.cfi_offset 1, -8
 199              		.cfi_offset 8, -16
 200              		.cfi_offset 9, -24
 201              		.cfi_offset 18, -32
 202 0104 13040102 		addi	s0,sp,32
 203              		.cfi_def_cfa 8, 0
  11:src/semaphore.cpp ****     TCB *old = TCB::running;
 204              		.loc 1 11 5
 205              		.loc 1 11 10 is_stmt 0
 206 0108 17090000 		la	s2,_ZN3TCB7runningE
 206      03390900 
 207 0110 83340900 		ld	s1,0(s2)
 208              	.LVL20:
  12:src/semaphore.cpp **** 
  13:src/semaphore.cpp ****     putBlock(old);
 209              		.loc 1 13 5 is_stmt 1
 210              		.loc 1 13 13 is_stmt 0
 211 0114 93850400 		mv	a1,s1
 212 0118 97000000 		call	_ZN9Semaphore8putBlockEP3TCB
 212      E7800000 
 213              	.LVL21:
  14:src/semaphore.cpp ****     //Scheduler::putSleep(old);
  15:src/semaphore.cpp **** 
  16:src/semaphore.cpp ****     TCB::running = Scheduler::get();
 214              		.loc 1 16 5 is_stmt 1
 215              		.loc 1 16 34 is_stmt 0
 216 0120 97000000 		call	_ZN9Scheduler3getEv@plt
 216      E7800000 
GAS LISTING /tmp/cccldDGL.s 			page 6


 217              	.LVL22:
 218              		.loc 1 16 18
 219 0128 2330A900 		sd	a0,0(s2)
  17:src/semaphore.cpp **** 
  18:src/semaphore.cpp ****     TCB::contextSwitch(&old->context, &TCB::running->context);
 220              		.loc 1 18 5 is_stmt 1
 221              		.loc 1 18 23 is_stmt 0
 222 012c 93050501 		addi	a1,a0,16
 223 0130 13850401 		addi	a0,s1,16
 224 0134 97000000 		call	_ZN3TCB13contextSwitchEPNS_7ContextES1_@plt
 224      E7800000 
 225              	.LVL23:
  19:src/semaphore.cpp **** }
 226              		.loc 1 19 1
 227 013c 83308101 		ld	ra,24(sp)
 228              		.cfi_restore 1
 229 0140 03340101 		ld	s0,16(sp)
 230              		.cfi_restore 8
 231              		.cfi_def_cfa 2, 32
 232 0144 83348100 		ld	s1,8(sp)
 233              		.cfi_restore 9
 234              	.LVL24:
 235 0148 03390100 		ld	s2,0(sp)
 236              		.cfi_restore 18
 237 014c 13010102 		addi	sp,sp,32
 238              		.cfi_def_cfa_offset 0
 239 0150 67800000 		jr	ra
 240              		.cfi_endproc
 241              	.LFE27:
 243              		.align	2
 244              		.globl	_ZN9Semaphore11sem_unblockEv
 246              	_ZN9Semaphore11sem_unblockEv:
 247              	.LFB28:
  20:src/semaphore.cpp **** void Semaphore::sem_unblock(){
 248              		.loc 1 20 30 is_stmt 1
 249              		.cfi_startproc
 250              	.LVL25:
 251 0154 130101FF 		addi	sp,sp,-16
 252              		.cfi_def_cfa_offset 16
 253 0158 23341100 		sd	ra,8(sp)
 254 015c 23308100 		sd	s0,0(sp)
 255              		.cfi_offset 1, -8
 256              		.cfi_offset 8, -16
 257 0160 13040101 		addi	s0,sp,16
 258              		.cfi_def_cfa 8, 0
  21:src/semaphore.cpp ****     TCB* blocked = getBlock();
 259              		.loc 1 21 5
 260              		.loc 1 21 28 is_stmt 0
 261 0164 97000000 		call	_ZN9Semaphore8getBlockEv
 261      E7800000 
 262              	.LVL26:
  22:src/semaphore.cpp ****     Scheduler::put(blocked);
 263              		.loc 1 22 5 is_stmt 1
 264              		.loc 1 22 19 is_stmt 0
 265 016c 97000000 		call	_ZN9Scheduler3putEP3TCB@plt
 265      E7800000 
 266              	.LVL27:
GAS LISTING /tmp/cccldDGL.s 			page 7


  23:src/semaphore.cpp **** }
 267              		.loc 1 23 1
 268 0174 83308100 		ld	ra,8(sp)
 269              		.cfi_restore 1
 270 0178 03340100 		ld	s0,0(sp)
 271              		.cfi_restore 8
 272              		.cfi_def_cfa 2, 16
 273 017c 13010101 		addi	sp,sp,16
 274              		.cfi_def_cfa_offset 0
 275 0180 67800000 		jr	ra
 276              		.cfi_endproc
 277              	.LFE28:
 279              		.align	2
 280              		.globl	_ZN9Semaphore8sem_waitEv
 282              	_ZN9Semaphore8sem_waitEv:
 283              	.LFB29:
  24:src/semaphore.cpp **** 
  25:src/semaphore.cpp **** void Semaphore::sem_wait(){
 284              		.loc 1 25 27 is_stmt 1
 285              		.cfi_startproc
 286              	.LVL28:
  26:src/semaphore.cpp ****     //lock
  27:src/semaphore.cpp ****     if(--val < 0) sem_block();
 287              		.loc 1 27 5
 288              		.loc 1 27 10 is_stmt 0
 289 0184 83270500 		lw	a5,0(a0)
 290              		.loc 1 27 8
 291 0188 9B87F7FF 		addiw	a5,a5,-1
 292              		.loc 1 27 14
 293 018c 2320F500 		sw	a5,0(a0)
 294              		.loc 1 27 5
 295 0190 13970702 		slli	a4,a5,32
 296 0194 63440700 		bltz	a4,.L21
 297 0198 67800000 		ret
 298              	.L21:
  25:src/semaphore.cpp ****     //lock
 299              		.loc 1 25 27 discriminator 1
 300 019c 130101FF 		addi	sp,sp,-16
 301              		.cfi_def_cfa_offset 16
 302 01a0 23341100 		sd	ra,8(sp)
 303 01a4 23308100 		sd	s0,0(sp)
 304              		.cfi_offset 1, -8
 305              		.cfi_offset 8, -16
 306 01a8 13040101 		addi	s0,sp,16
 307              		.cfi_def_cfa 8, 0
 308              		.loc 1 27 19 is_stmt 1 discriminator 1
 309              		.loc 1 27 28 is_stmt 0 discriminator 1
 310 01ac 97000000 		call	_ZN9Semaphore9sem_blockEv
 310      E7800000 
 311              	.LVL29:
  28:src/semaphore.cpp ****     //unlock
  29:src/semaphore.cpp **** }
 312              		.loc 1 29 1 discriminator 1
 313 01b4 83308100 		ld	ra,8(sp)
 314              		.cfi_restore 1
 315 01b8 03340100 		ld	s0,0(sp)
 316              		.cfi_restore 8
GAS LISTING /tmp/cccldDGL.s 			page 8


 317              		.cfi_def_cfa 2, 16
 318 01bc 13010101 		addi	sp,sp,16
 319              		.cfi_def_cfa_offset 0
 320 01c0 67800000 		jr	ra
 321              		.cfi_endproc
 322              	.LFE29:
 324              		.align	2
 325              		.globl	_ZN9Semaphore10sem_signalEv
 327              	_ZN9Semaphore10sem_signalEv:
 328              	.LFB30:
  30:src/semaphore.cpp **** void Semaphore::sem_signal(){
 329              		.loc 1 30 29 is_stmt 1
 330              		.cfi_startproc
 331              	.LVL30:
  31:src/semaphore.cpp ****     //lock
  32:src/semaphore.cpp ****     if(++val <= 0) sem_unblock();
 332              		.loc 1 32 5
 333              		.loc 1 32 10 is_stmt 0
 334 01c4 83270500 		lw	a5,0(a0)
 335              		.loc 1 32 8
 336 01c8 9B871700 		addiw	a5,a5,1
 337 01cc 1B870700 		sext.w	a4,a5
 338              		.loc 1 32 14
 339 01d0 2320F500 		sw	a5,0(a0)
 340              		.loc 1 32 5
 341 01d4 6354E000 		blez	a4,.L28
 342 01d8 67800000 		ret
 343              	.L28:
  30:src/semaphore.cpp **** void Semaphore::sem_signal(){
 344              		.loc 1 30 29 discriminator 1
 345 01dc 130101FF 		addi	sp,sp,-16
 346              		.cfi_def_cfa_offset 16
 347 01e0 23341100 		sd	ra,8(sp)
 348 01e4 23308100 		sd	s0,0(sp)
 349              		.cfi_offset 1, -8
 350              		.cfi_offset 8, -16
 351 01e8 13040101 		addi	s0,sp,16
 352              		.cfi_def_cfa 8, 0
 353              		.loc 1 32 20 is_stmt 1 discriminator 1
 354              		.loc 1 32 31 is_stmt 0 discriminator 1
 355 01ec 97000000 		call	_ZN9Semaphore11sem_unblockEv
 355      E7800000 
 356              	.LVL31:
  33:src/semaphore.cpp ****     //unlock
  34:src/semaphore.cpp **** }...
 357              		.loc 1 34 1 discriminator 1
 358 01f4 83308100 		ld	ra,8(sp)
 359              		.cfi_restore 1
 360 01f8 03340100 		ld	s0,0(sp)
 361              		.cfi_restore 8
 362              		.cfi_def_cfa 2, 16
 363 01fc 13010101 		addi	sp,sp,16
 364              		.cfi_def_cfa_offset 0
 365 0200 67800000 		jr	ra
 366              		.cfi_endproc
 367              	.LFE30:
 369              	.Letext0:
GAS LISTING /tmp/cccldDGL.s 			page 9


 370              		.file 3 "src/../h/../lib/hw.h"
 371              		.file 4 "src/../h/tcb.hpp"
 372              		.file 5 "src/../h/semaphore.hpp"
 373              		.file 6 "src/../h/scheduler.hpp"
GAS LISTING /tmp/cccldDGL.s 			page 10


DEFINED SYMBOLS
                            *ABS*:0000000000000000 semaphore.cpp
     /tmp/cccldDGL.s:9      .text:0000000000000000 _ZN9Semaphore8putBlockEP3TCB
     /tmp/cccldDGL.s:13     .text:0000000000000000 .L0 
     /tmp/cccldDGL.s:15     .text:0000000000000000 .L0 
     /tmp/cccldDGL.s:16     .text:0000000000000004 .L0 
     /tmp/cccldDGL.s:22     .text:0000000000000018 .L0 
     /tmp/cccldDGL.s:23     .text:0000000000000018 .L0 
     /tmp/cccldDGL.s:24     .text:0000000000000018 .L0 
     /tmp/cccldDGL.s:25     .text:0000000000000018 .L0 
     /tmp/cccldDGL.s:26     .text:0000000000000018 .L0 
     /tmp/cccldDGL.s:28     .text:000000000000001c .L0 
     /tmp/cccldDGL.s:32     .text:0000000000000024 .L0 
     /tmp/cccldDGL.s:33     .text:0000000000000024 .L0 
     /tmp/cccldDGL.s:39     .text:0000000000000028 .L0 
     /tmp/cccldDGL.s:46     .text:0000000000000034 .L0 
     /tmp/cccldDGL.s:52     .text:000000000000003c .L0 
     /tmp/cccldDGL.s:54     .text:0000000000000040 .L0 
     /tmp/cccldDGL.s:56     .text:0000000000000044 .L0 
     /tmp/cccldDGL.s:58     .text:0000000000000048 .L0 
     /tmp/cccldDGL.s:61     .text:000000000000004c .L0 
     /tmp/cccldDGL.s:68     .text:0000000000000058 .L0 
     /tmp/cccldDGL.s:69     .text:000000000000005c .L0 
     /tmp/cccldDGL.s:70     .text:000000000000005c .L0 
     /tmp/cccldDGL.s:72     .text:0000000000000060 .L0 
     /tmp/cccldDGL.s:73     .text:0000000000000060 .L0 
     /tmp/cccldDGL.s:75     .text:0000000000000064 .L0 
     /tmp/cccldDGL.s:77     .text:0000000000000068 .L0 
     /tmp/cccldDGL.s:80     .text:000000000000006c .L0 
     /tmp/cccldDGL.s:83     .text:0000000000000070 .L0 
     /tmp/cccldDGL.s:87     .text:0000000000000074 .L0 
     /tmp/cccldDGL.s:91     .text:0000000000000074 .L0 
     /tmp/cccldDGL.s:96     .text:0000000000000080 .L0 
     /tmp/cccldDGL.s:102    .text:0000000000000080 _ZN9Semaphore8getBlockEv
     /tmp/cccldDGL.s:105    .text:0000000000000080 .L0 
     /tmp/cccldDGL.s:107    .text:0000000000000080 .L0 
     /tmp/cccldDGL.s:108    .text:0000000000000084 .L0 
     /tmp/cccldDGL.s:112    .text:0000000000000090 .L0 
     /tmp/cccldDGL.s:113    .text:0000000000000090 .L0 
     /tmp/cccldDGL.s:114    .text:0000000000000090 .L0 
     /tmp/cccldDGL.s:116    .text:0000000000000094 .L0 
     /tmp/cccldDGL.s:119    .text:0000000000000098 .L0 
     /tmp/cccldDGL.s:120    .text:0000000000000098 .L0 
     /tmp/cccldDGL.s:125    .text:000000000000009c .L0 
     /tmp/cccldDGL.s:128    .text:00000000000000a0 .L0 
     /tmp/cccldDGL.s:131    .text:00000000000000a4 .L0 
     /tmp/cccldDGL.s:133    .text:00000000000000a8 .L0 
     /tmp/cccldDGL.s:135    .text:00000000000000ac .L0 
     /tmp/cccldDGL.s:138    .text:00000000000000b0 .L0 
     /tmp/cccldDGL.s:143    .text:00000000000000bc .L0 
     /tmp/cccldDGL.s:146    .text:00000000000000c0 .L0 
     /tmp/cccldDGL.s:152    .text:00000000000000c8 .L0 
     /tmp/cccldDGL.s:154    .text:00000000000000d0 .L0 
     /tmp/cccldDGL.s:155    .text:00000000000000d0 .L0 
     /tmp/cccldDGL.s:157    .text:00000000000000d4 .L0 
     /tmp/cccldDGL.s:158    .text:00000000000000d4 .L0 
     /tmp/cccldDGL.s:160    .text:00000000000000d8 .L0 
GAS LISTING /tmp/cccldDGL.s 			page 11


     /tmp/cccldDGL.s:162    .text:00000000000000dc .L0 
     /tmp/cccldDGL.s:166    .text:00000000000000e0 .L0 
     /tmp/cccldDGL.s:170    .text:00000000000000e0 .L0 
     /tmp/cccldDGL.s:175    .text:00000000000000e8 .L0 
     /tmp/cccldDGL.s:180    .text:00000000000000ec .L0 
     /tmp/cccldDGL.s:181    .text:00000000000000f0 .L0 
     /tmp/cccldDGL.s:187    .text:00000000000000f0 _ZN9Semaphore9sem_blockEv
     /tmp/cccldDGL.s:190    .text:00000000000000f0 .L0 
     /tmp/cccldDGL.s:192    .text:00000000000000f0 .L0 
     /tmp/cccldDGL.s:193    .text:00000000000000f4 .L0 
     /tmp/cccldDGL.s:198    .text:0000000000000104 .L0 
     /tmp/cccldDGL.s:199    .text:0000000000000104 .L0 
     /tmp/cccldDGL.s:200    .text:0000000000000104 .L0 
     /tmp/cccldDGL.s:201    .text:0000000000000104 .L0 
     /tmp/cccldDGL.s:203    .text:0000000000000108 .L0 
     /tmp/cccldDGL.s:205    .text:0000000000000108 .L0 
     /tmp/cccldDGL.s:206    .text:0000000000000108 .L0 
     /tmp/cccldDGL.s:210    .text:0000000000000114 .L0 
     /tmp/cccldDGL.s:211    .text:0000000000000114 .L0 
     /tmp/cccldDGL.s:215    .text:0000000000000120 .L0 
     /tmp/cccldDGL.s:216    .text:0000000000000120 .L0 
     /tmp/cccldDGL.s:219    .text:0000000000000128 .L0 
     /tmp/cccldDGL.s:221    .text:000000000000012c .L0 
     /tmp/cccldDGL.s:222    .text:000000000000012c .L0 
     /tmp/cccldDGL.s:227    .text:000000000000013c .L0 
     /tmp/cccldDGL.s:228    .text:0000000000000140 .L0 
     /tmp/cccldDGL.s:230    .text:0000000000000144 .L0 
     /tmp/cccldDGL.s:231    .text:0000000000000144 .L0 
     /tmp/cccldDGL.s:233    .text:0000000000000148 .L0 
     /tmp/cccldDGL.s:236    .text:000000000000014c .L0 
     /tmp/cccldDGL.s:238    .text:0000000000000150 .L0 
     /tmp/cccldDGL.s:240    .text:0000000000000154 .L0 
     /tmp/cccldDGL.s:246    .text:0000000000000154 _ZN9Semaphore11sem_unblockEv
     /tmp/cccldDGL.s:249    .text:0000000000000154 .L0 
     /tmp/cccldDGL.s:251    .text:0000000000000154 .L0 
     /tmp/cccldDGL.s:252    .text:0000000000000158 .L0 
     /tmp/cccldDGL.s:255    .text:0000000000000160 .L0 
     /tmp/cccldDGL.s:256    .text:0000000000000160 .L0 
     /tmp/cccldDGL.s:258    .text:0000000000000164 .L0 
     /tmp/cccldDGL.s:260    .text:0000000000000164 .L0 
     /tmp/cccldDGL.s:261    .text:0000000000000164 .L0 
     /tmp/cccldDGL.s:264    .text:000000000000016c .L0 
     /tmp/cccldDGL.s:265    .text:000000000000016c .L0 
     /tmp/cccldDGL.s:268    .text:0000000000000174 .L0 
     /tmp/cccldDGL.s:269    .text:0000000000000178 .L0 
     /tmp/cccldDGL.s:271    .text:000000000000017c .L0 
     /tmp/cccldDGL.s:272    .text:000000000000017c .L0 
     /tmp/cccldDGL.s:274    .text:0000000000000180 .L0 
     /tmp/cccldDGL.s:276    .text:0000000000000184 .L0 
     /tmp/cccldDGL.s:282    .text:0000000000000184 _ZN9Semaphore8sem_waitEv
     /tmp/cccldDGL.s:285    .text:0000000000000184 .L0 
     /tmp/cccldDGL.s:287    .text:0000000000000184 .L0 
     /tmp/cccldDGL.s:288    .text:0000000000000184 .L0 
     /tmp/cccldDGL.s:289    .text:0000000000000184 .L0 
     /tmp/cccldDGL.s:291    .text:0000000000000188 .L0 
     /tmp/cccldDGL.s:293    .text:000000000000018c .L0 
     /tmp/cccldDGL.s:295    .text:0000000000000190 .L0 
GAS LISTING /tmp/cccldDGL.s 			page 12


     /tmp/cccldDGL.s:300    .text:000000000000019c .L0 
     /tmp/cccldDGL.s:301    .text:00000000000001a0 .L0 
     /tmp/cccldDGL.s:304    .text:00000000000001a8 .L0 
     /tmp/cccldDGL.s:305    .text:00000000000001a8 .L0 
     /tmp/cccldDGL.s:307    .text:00000000000001ac .L0 
     /tmp/cccldDGL.s:309    .text:00000000000001ac .L0 
     /tmp/cccldDGL.s:310    .text:00000000000001ac .L0 
     /tmp/cccldDGL.s:313    .text:00000000000001b4 .L0 
     /tmp/cccldDGL.s:314    .text:00000000000001b8 .L0 
     /tmp/cccldDGL.s:316    .text:00000000000001bc .L0 
     /tmp/cccldDGL.s:317    .text:00000000000001bc .L0 
     /tmp/cccldDGL.s:319    .text:00000000000001c0 .L0 
     /tmp/cccldDGL.s:321    .text:00000000000001c4 .L0 
     /tmp/cccldDGL.s:327    .text:00000000000001c4 _ZN9Semaphore10sem_signalEv
     /tmp/cccldDGL.s:330    .text:00000000000001c4 .L0 
     /tmp/cccldDGL.s:332    .text:00000000000001c4 .L0 
     /tmp/cccldDGL.s:333    .text:00000000000001c4 .L0 
     /tmp/cccldDGL.s:334    .text:00000000000001c4 .L0 
     /tmp/cccldDGL.s:336    .text:00000000000001c8 .L0 
     /tmp/cccldDGL.s:339    .text:00000000000001d0 .L0 
     /tmp/cccldDGL.s:341    .text:00000000000001d4 .L0 
     /tmp/cccldDGL.s:345    .text:00000000000001dc .L0 
     /tmp/cccldDGL.s:346    .text:00000000000001e0 .L0 
     /tmp/cccldDGL.s:349    .text:00000000000001e8 .L0 
     /tmp/cccldDGL.s:350    .text:00000000000001e8 .L0 
     /tmp/cccldDGL.s:352    .text:00000000000001ec .L0 
     /tmp/cccldDGL.s:354    .text:00000000000001ec .L0 
     /tmp/cccldDGL.s:355    .text:00000000000001ec .L0 
     /tmp/cccldDGL.s:358    .text:00000000000001f4 .L0 
     /tmp/cccldDGL.s:359    .text:00000000000001f8 .L0 
     /tmp/cccldDGL.s:361    .text:00000000000001fc .L0 
     /tmp/cccldDGL.s:362    .text:00000000000001fc .L0 
     /tmp/cccldDGL.s:364    .text:0000000000000200 .L0 
     /tmp/cccldDGL.s:366    .text:0000000000000204 .L0 
     /tmp/cccldDGL.s:374    .text:0000000000000204 .L0 
     /tmp/cccldDGL.s:206    .text:0000000000000108 .L0 
     /tmp/cccldDGL.s:86     .text:0000000000000074 .L2
     /tmp/cccldDGL.s:59     .text:000000000000004c .L3
     /tmp/cccldDGL.s:173    .text:00000000000000e8 .L8
     /tmp/cccldDGL.s:165    .text:00000000000000e0 .L10
     /tmp/cccldDGL.s:136    .text:00000000000000b0 .L7
     /tmp/cccldDGL.s:148    .text:00000000000000c8 .L5
     /tmp/cccldDGL.s:298    .text:000000000000019c .L21
     /tmp/cccldDGL.s:343    .text:00000000000001dc .L28
     /tmp/cccldDGL.s:1598   .debug_abbrev:0000000000000000 .Ldebug_abbrev0
     /tmp/cccldDGL.s:3102   .debug_str:00000000000006cf .LASF119
     /tmp/cccldDGL.s:2968   .debug_str:00000000000002f7 .LASF120
     /tmp/cccldDGL.s:3086   .debug_str:0000000000000625 .LASF121
     /tmp/cccldDGL.s:5      .text:0000000000000000 .Ltext0
     /tmp/cccldDGL.s:369    .text:0000000000000204 .Letext0
     /tmp/cccldDGL.s:2876   .debug_line:0000000000000000 .Ldebug_line0
     /tmp/cccldDGL.s:3030   .debug_str:00000000000004bf .LASF0
     /tmp/cccldDGL.s:3044   .debug_str:0000000000000511 .LASF1
     /tmp/cccldDGL.s:3010   .debug_str:0000000000000429 .LASF2
     /tmp/cccldDGL.s:2978   .debug_str:0000000000000358 .LASF4
     /tmp/cccldDGL.s:3082   .debug_str:00000000000005f4 .LASF3
     /tmp/cccldDGL.s:2898   .debug_str:00000000000000bd .LASF5
GAS LISTING /tmp/cccldDGL.s 			page 13


     /tmp/cccldDGL.s:2934   .debug_str:00000000000001d8 .LASF6
     /tmp/cccldDGL.s:3046   .debug_str:0000000000000524 .LASF7
     /tmp/cccldDGL.s:3028   .debug_str:00000000000004ac .LASF8
     /tmp/cccldDGL.s:3120   .debug_str:000000000000081b .LASF9
     /tmp/cccldDGL.s:2960   .debug_str:00000000000002a8 .LASF10
     /tmp/cccldDGL.s:3056   .debug_str:0000000000000566 .LASF11
     /tmp/cccldDGL.s:3106   .debug_str:000000000000079f .LASF12
     /tmp/cccldDGL.s:2902   .debug_str:00000000000000cf .LASF13
     /tmp/cccldDGL.s:2882   .debug_str:0000000000000028 .LASF14
     /tmp/cccldDGL.s:2914   .debug_str:000000000000013c .LASF15
     /tmp/cccldDGL.s:3074   .debug_str:00000000000005c8 .LASF16
     /tmp/cccldDGL.s:2926   .debug_str:00000000000001ae .LASF17
     /tmp/cccldDGL.s:2996   .debug_str:00000000000003c2 .LASF39
     /tmp/cccldDGL.s:2998   .debug_str:00000000000003cc .LASF40
     /tmp/cccldDGL.s:3066   .debug_str:0000000000000594 .LASF18
     /tmp/cccldDGL.s:3136   .debug_str:00000000000008bb .LASF19
     /tmp/cccldDGL.s:3020   .debug_str:0000000000000476 .LASF122
     /tmp/cccldDGL.s:2930   .debug_str:00000000000001ca .LASF20
     /tmp/cccldDGL.s:3006   .debug_str:0000000000000408 .LASF21
     /tmp/cccldDGL.s:2976   .debug_str:0000000000000353 .LASF22
     /tmp/cccldDGL.s:3092   .debug_str:0000000000000670 .LASF27
     /tmp/cccldDGL.s:3070   .debug_str:00000000000005a6 .LASF24
     /tmp/cccldDGL.s:3022   .debug_str:0000000000000495 .LASF123
     /tmp/cccldDGL.s:2964   .debug_str:00000000000002c7 .LASF124
     /tmp/cccldDGL.s:3098   .debug_str:00000000000006b9 .LASF23
     /tmp/cccldDGL.s:2948   .debug_str:000000000000023f .LASF25
     /tmp/cccldDGL.s:3100   .debug_str:00000000000006c6 .LASF26
     /tmp/cccldDGL.s:2938   .debug_str:00000000000001fb .LASF28
     /tmp/cccldDGL.s:2958   .debug_str:00000000000002a0 .LASF29
     /tmp/cccldDGL.s:2936   .debug_str:00000000000001df .LASF30
     /tmp/cccldDGL.s:3104   .debug_str:0000000000000793 .LASF31
     /tmp/cccldDGL.s:2880   .debug_str:000000000000000a .LASF32
     /tmp/cccldDGL.s:2910   .debug_str:0000000000000120 .LASF33
     /tmp/cccldDGL.s:2990   .debug_str:0000000000000390 .LASF34
     /tmp/cccldDGL.s:3038   .debug_str:00000000000004f5 .LASF35
     /tmp/cccldDGL.s:2892   .debug_str:0000000000000075 .LASF36
     /tmp/cccldDGL.s:2992   .debug_str:00000000000003ab .LASF37
     /tmp/cccldDGL.s:3132   .debug_str:0000000000000888 .LASF38
     /tmp/cccldDGL.s:2888   .debug_str:0000000000000061 .LASF41
     /tmp/cccldDGL.s:3064   .debug_str:000000000000058f .LASF42
     /tmp/cccldDGL.s:2982   .debug_str:0000000000000368 .LASF43
     /tmp/cccldDGL.s:3036   .debug_str:00000000000004ef .LASF44
     /tmp/cccldDGL.s:2984   .debug_str:000000000000036d .LASF45
     /tmp/cccldDGL.s:3040   .debug_str:0000000000000500 .LASF46
     /tmp/cccldDGL.s:2980   .debug_str:000000000000035f .LASF47
     /tmp/cccldDGL.s:3058   .debug_str:0000000000000575 .LASF48
     /tmp/cccldDGL.s:3088   .debug_str:0000000000000640 .LASF99
     /tmp/cccldDGL.s:2900   .debug_str:00000000000000c4 .LASF49
     /tmp/cccldDGL.s:2970   .debug_str:0000000000000309 .LASF50
     /tmp/cccldDGL.s:2988   .debug_str:0000000000000383 .LASF51
     /tmp/cccldDGL.s:3126   .debug_str:0000000000000851 .LASF52
     /tmp/cccldDGL.s:2962   .debug_str:00000000000002b6 .LASF53
     /tmp/cccldDGL.s:3000   .debug_str:00000000000003d1 .LASF54
     /tmp/cccldDGL.s:3048   .debug_str:0000000000000537 .LASF55
     /tmp/cccldDGL.s:2922   .debug_str:0000000000000180 .LASF56
     /tmp/cccldDGL.s:3012   .debug_str:0000000000000437 .LASF57
     /tmp/cccldDGL.s:2972   .debug_str:0000000000000314 .LASF58
GAS LISTING /tmp/cccldDGL.s 			page 14


     /tmp/cccldDGL.s:3002   .debug_str:00000000000003f1 .LASF59
     /tmp/cccldDGL.s:2896   .debug_str:00000000000000a4 .LASF60
     /tmp/cccldDGL.s:2890   .debug_str:0000000000000069 .LASF63
     /tmp/cccldDGL.s:2924   .debug_str:0000000000000197 .LASF65
     /tmp/cccldDGL.s:3076   .debug_str:00000000000005de .LASF61
     /tmp/cccldDGL.s:2908   .debug_str:000000000000010a .LASF62
     /tmp/cccldDGL.s:3034   .debug_str:00000000000004e6 .LASF64
     /tmp/cccldDGL.s:2950   .debug_str:000000000000025e .LASF66
     /tmp/cccldDGL.s:2986   .debug_str:0000000000000375 .LASF67
     /tmp/cccldDGL.s:3114   .debug_str:00000000000007eb .LASF68
     /tmp/cccldDGL.s:3014   .debug_str:0000000000000443 .LASF69
     /tmp/cccldDGL.s:3018   .debug_str:0000000000000466 .LASF70
     /tmp/cccldDGL.s:2940   .debug_str:0000000000000218 .LASF71
     /tmp/cccldDGL.s:3062   .debug_str:0000000000000583 .LASF72
     /tmp/cccldDGL.s:2944   .debug_str:0000000000000229 .LASF109
     /tmp/cccldDGL.s:2956   .debug_str:000000000000028f .LASF73
     /tmp/cccldDGL.s:2894   .debug_str:0000000000000092 .LASF74
     /tmp/cccldDGL.s:2994   .debug_str:00000000000003b4 .LASF125
     /tmp/cccldDGL.s:2966   .debug_str:00000000000002de .LASF126
     /tmp/cccldDGL.s:3128   .debug_str:000000000000086d .LASF127
     /tmp/cccldDGL.s:2974   .debug_str:000000000000032b .LASF128
     /tmp/cccldDGL.s:2878   .debug_str:0000000000000000 .LASF75
     /tmp/cccldDGL.s:3068   .debug_str:0000000000000599 .LASF76
     /tmp/cccldDGL.s:3004   .debug_str:00000000000003fe .LASF77
     /tmp/cccldDGL.s:3032   .debug_str:00000000000004cc .LASF78
     /tmp/cccldDGL.s:2942   .debug_str:000000000000021d .LASF79
     /tmp/cccldDGL.s:3016   .debug_str:0000000000000449 .LASF80
     /tmp/cccldDGL.s:3138   .debug_str:00000000000008c0 .LASF81
     /tmp/cccldDGL.s:3096   .debug_str:000000000000069c .LASF82
     /tmp/cccldDGL.s:2932   .debug_str:00000000000001cf .LASF83
     /tmp/cccldDGL.s:2954   .debug_str:0000000000000276 .LASF84
     /tmp/cccldDGL.s:3108   .debug_str:00000000000007ae .LASF85
     /tmp/cccldDGL.s:2928   .debug_str:00000000000001c4 .LASF86
     /tmp/cccldDGL.s:2904   .debug_str:00000000000000df .LASF87
     /tmp/cccldDGL.s:3072   .debug_str:00000000000005bd .LASF88
     /tmp/cccldDGL.s:2912   .debug_str:000000000000012a .LASF89
     /tmp/cccldDGL.s:2918   .debug_str:0000000000000158 .LASF90
     /tmp/cccldDGL.s:3134   .debug_str:00000000000008a2 .LASF91
     /tmp/cccldDGL.s:3118   .debug_str:0000000000000810 .LASF92
     /tmp/cccldDGL.s:3008   .debug_str:000000000000040d .LASF93
     /tmp/cccldDGL.s:2946   .debug_str:0000000000000231 .LASF94
     /tmp/cccldDGL.s:3090   .debug_str:0000000000000651 .LASF95
     /tmp/cccldDGL.s:3116   .debug_str:0000000000000804 .LASF96
     /tmp/cccldDGL.s:3112   .debug_str:00000000000007ce .LASF97
     /tmp/cccldDGL.s:3052   .debug_str:0000000000000553 .LASF98
     /tmp/cccldDGL.s:2884   .debug_str:0000000000000038 .LASF100
     /tmp/cccldDGL.s:3050   .debug_str:0000000000000542 .LASF101
     /tmp/cccldDGL.s:3042   .debug_str:000000000000050a .LASF102
     /tmp/cccldDGL.s:2906   .debug_str:00000000000000f6 .LASF129
     /tmp/cccldDGL.s:2886   .debug_str:0000000000000049 .LASF103
     /tmp/cccldDGL.s:3124   .debug_str:0000000000000848 .LASF104
     /tmp/cccldDGL.s:3094   .debug_str:0000000000000683 .LASF107
     /tmp/cccldDGL.s:3054   .debug_str:000000000000055d .LASF105
     /tmp/cccldDGL.s:3122   .debug_str:000000000000082b .LASF130
     /tmp/cccldDGL.s:3110   .debug_str:00000000000007c0 .LASF106
     /tmp/cccldDGL.s:3084   .debug_str:0000000000000606 .LASF108
     /tmp/cccldDGL.s:3024   .debug_str:000000000000049f .LASF110
GAS LISTING /tmp/cccldDGL.s 			page 15


     /tmp/cccldDGL.s:2952   .debug_str:0000000000000271 .LASF111
     /tmp/cccldDGL.s:3060   .debug_str:000000000000057e .LASF112
     /tmp/cccldDGL.s:2920   .debug_str:0000000000000161 .LASF131
     /tmp/cccldDGL.s:3078   .debug_str:00000000000005e9 .LASF113
     /tmp/cccldDGL.s:328    .text:00000000000001c4 .LFB30
     /tmp/cccldDGL.s:367    .text:0000000000000204 .LFE30
     /tmp/cccldDGL.s:2621   .debug_loc:0000000000000000 .LLST16
     /tmp/cccldDGL.s:356    .text:00000000000001f4 .LVL31
     /tmp/cccldDGL.s:283    .text:0000000000000184 .LFB29
     /tmp/cccldDGL.s:322    .text:00000000000001c4 .LFE29
     /tmp/cccldDGL.s:2635   .debug_loc:0000000000000039 .LLST15
     /tmp/cccldDGL.s:311    .text:00000000000001b4 .LVL29
     /tmp/cccldDGL.s:247    .text:0000000000000154 .LFB28
     /tmp/cccldDGL.s:277    .text:0000000000000184 .LFE28
     /tmp/cccldDGL.s:2649   .debug_loc:0000000000000072 .LLST13
     /tmp/cccldDGL.s:3026   .debug_str:00000000000004a4 .LASF114
     /tmp/cccldDGL.s:2663   .debug_loc:00000000000000ab .LLST14
     /tmp/cccldDGL.s:262    .text:000000000000016c .LVL26
     /tmp/cccldDGL.s:266    .text:0000000000000174 .LVL27
     /tmp/cccldDGL.s:188    .text:00000000000000f0 .LFB27
     /tmp/cccldDGL.s:241    .text:0000000000000154 .LFE27
     /tmp/cccldDGL.s:2670   .debug_loc:00000000000000ce .LLST11
     /tmp/cccldDGL.s:2684   .debug_loc:0000000000000107 .LLST12
     /tmp/cccldDGL.s:213    .text:0000000000000120 .LVL21
     /tmp/cccldDGL.s:217    .text:0000000000000128 .LVL22
     /tmp/cccldDGL.s:225    .text:000000000000013c .LVL23
     /tmp/cccldDGL.s:103    .text:0000000000000080 .LFB26
     /tmp/cccldDGL.s:182    .text:00000000000000f0 .LFE26
     /tmp/cccldDGL.s:2691   .debug_loc:000000000000012a .LLST7
     /tmp/cccldDGL.s:122    .text:000000000000009c .LBB18
     /tmp/cccldDGL.s:2862   .debug_ranges:0000000000000000 .Ldebug_ranges0
     /tmp/cccldDGL.s:2719   .debug_loc:000000000000019e .LLST8
     /tmp/cccldDGL.s:2739   .debug_loc:00000000000001ec .LLST9
     /tmp/cccldDGL.s:2750   .debug_loc:0000000000000222 .LLST10
     /tmp/cccldDGL.s:147    .text:00000000000000c8 .LVL15
     /tmp/cccldDGL.s:10     .text:0000000000000000 .LFB25
     /tmp/cccldDGL.s:97     .text:0000000000000080 .LFE25
     /tmp/cccldDGL.s:2757   .debug_loc:0000000000000245 .LLST0
     /tmp/cccldDGL.s:2779   .debug_loc:00000000000002a4 .LLST1
     /tmp/cccldDGL.s:35     .text:0000000000000028 .LBB10
     /tmp/cccldDGL.s:2801   .debug_loc:0000000000000303 .LLST2
     /tmp/cccldDGL.s:2816   .debug_loc:000000000000034c .LLST3
     /tmp/cccldDGL.s:43     .text:0000000000000034 .LBB12
     /tmp/cccldDGL.s:50     .text:000000000000003c .LBE12
     /tmp/cccldDGL.s:2827   .debug_loc:0000000000000382 .LLST4
     /tmp/cccldDGL.s:2835   .debug_loc:00000000000003a6 .LLST5
     /tmp/cccldDGL.s:2842   .debug_loc:00000000000003c9 .LLST6
     /tmp/cccldDGL.s:42     .text:0000000000000034 .LVL3
     /tmp/cccldDGL.s:3140   .debug_str:00000000000008c9 .LASF115
     /tmp/cccldDGL.s:2916   .debug_str:0000000000000148 .LASF117
     /tmp/cccldDGL.s:3080   .debug_str:00000000000005ee .LASF116
     /tmp/cccldDGL.s:3130   .debug_str:000000000000087b .LASF118
     /tmp/cccldDGL.s:331    .text:00000000000001c4 .LVL30
     /tmp/cccldDGL.s:286    .text:0000000000000184 .LVL28
     /tmp/cccldDGL.s:250    .text:0000000000000154 .LVL25
     /tmp/cccldDGL.s:191    .text:00000000000000f0 .LVL19
     /tmp/cccldDGL.s:208    .text:0000000000000114 .LVL20
GAS LISTING /tmp/cccldDGL.s 			page 16


     /tmp/cccldDGL.s:234    .text:0000000000000148 .LVL24
     /tmp/cccldDGL.s:106    .text:0000000000000080 .LVL9
     /tmp/cccldDGL.s:126    .text:00000000000000a0 .LVL11
     /tmp/cccldDGL.s:139    .text:00000000000000b4 .LVL13
     /tmp/cccldDGL.s:164    .text:00000000000000e0 .LVL16
     /tmp/cccldDGL.s:121    .text:000000000000009c .LVL10
     /tmp/cccldDGL.s:176    .text:00000000000000ec .LVL18
     /tmp/cccldDGL.s:129    .text:00000000000000a4 .LVL12
     /tmp/cccldDGL.s:172    .text:00000000000000e8 .LVL17
     /tmp/cccldDGL.s:144    .text:00000000000000c0 .LVL14
     /tmp/cccldDGL.s:14     .text:0000000000000000 .LVL0
     /tmp/cccldDGL.s:40     .text:000000000000002c .LVL2
     /tmp/cccldDGL.s:78     .text:0000000000000068 .LVL6
     /tmp/cccldDGL.s:85     .text:0000000000000074 .LVL8
     /tmp/cccldDGL.s:81     .text:000000000000006c .LVL7
     /tmp/cccldDGL.s:34     .text:0000000000000028 .LVL1
     /tmp/cccldDGL.s:64     .text:0000000000000058 .LVL5
     /tmp/cccldDGL.s:48     .text:000000000000003c .LVL4
     /tmp/cccldDGL.s:375    .debug_info:0000000000000000 .Ldebug_info0
     /tmp/cccldDGL.s:66     .text:0000000000000058 .LBE10
     /tmp/cccldDGL.s:88     .text:0000000000000074 .LBB15
     /tmp/cccldDGL.s:95     .text:0000000000000080 .LBE15
     /tmp/cccldDGL.s:150    .text:00000000000000c8 .LBE18
     /tmp/cccldDGL.s:167    .text:00000000000000e0 .LBB21
     /tmp/cccldDGL.s:178    .text:00000000000000ec .LBE21

UNDEFINED SYMBOLS
_Znwm
_ZdlPv
_ZN3TCB7runningE
_ZN9Scheduler3getEv
_ZN3TCB13contextSwitchEPNS_7ContextES1_
_ZN9Scheduler3putEP3TCB
