GAS LISTING /tmp/cclKPlFC.s 			page 1


   1              		.file	"tcb.cpp"
   2              		.option pic
   3              		.option norelax
   4              		.text
   5              	.Ltext0:
   6              		.align	2
   7              		.globl	_ZN3TCB12createThreadEPFvvE
   9              	_ZN3TCB12createThreadEPFvvE:
  10              	.LFB37:
  11              		.file 1 "src/tcb.cpp"
   1:src/tcb.cpp   **** #include "../h/tcb.hpp"
   2:src/tcb.cpp   **** #include "../h/riscv.hpp"
   3:src/tcb.cpp   **** #include "../h/scheduler.hpp"
   4:src/tcb.cpp   **** 
   5:src/tcb.cpp   **** TCB *TCB::running = nullptr;
   6:src/tcb.cpp   **** uint64 TCB::timeSLiceCounter = 0;
   7:src/tcb.cpp   **** 
   8:src/tcb.cpp   **** TCB *TCB::createThread(Body body) { return new TCB(body, TIME_SLICE); }
  12              		.loc 1 8 35
  13              		.cfi_startproc
  14              		.cfi_personality 0x9b,DW.ref.__gxx_personality_v0
  15              		.cfi_lsda 0x1b,.LLSDA37
  16              	.LVL0:
  17 0000 130101FE 		addi	sp,sp,-32
  18              		.cfi_def_cfa_offset 32
  19 0004 233C1100 		sd	ra,24(sp)
  20 0008 23388100 		sd	s0,16(sp)
  21 000c 23349100 		sd	s1,8(sp)
  22 0010 23302101 		sd	s2,0(sp)
  23              		.cfi_offset 1, -8
  24              		.cfi_offset 8, -16
  25              		.cfi_offset 9, -24
  26              		.cfi_offset 18, -32
  27 0014 13040102 		addi	s0,sp,32
  28              		.cfi_def_cfa 8, 0
  29 0018 13090500 		mv	s2,a0
  30              		.loc 1 8 37
  31              		.loc 1 8 68 is_stmt 0
  32 001c 13058003 		li	a0,56
  33              	.LVL1:
  34              	.LEHB0:
  35 0020 97000000 		call	_Znwm@plt
  35      E7800000 
  36              	.LVL2:
  37              	.LEHE0:
  38 0028 93040500 		mv	s1,a0
  39              	.LVL3:
  40              	.LBB14:
  41              	.LBB15:
  42              		.file 2 "src/../h/tcb.hpp"
   1:src/../h/tcb.hpp **** #ifndef cbb_hpp
   2:src/../h/tcb.hpp **** #define cbb_hpp
   3:src/../h/tcb.hpp **** 
   4:src/../h/tcb.hpp **** #include "../lib/hw.h"
   5:src/../h/tcb.hpp **** #include "scheduler.hpp"
   6:src/../h/tcb.hpp **** // Vezbe 7
   7:src/../h/tcb.hpp **** 
GAS LISTING /tmp/cclKPlFC.s 			page 2


   8:src/../h/tcb.hpp **** class TCB {
   9:src/../h/tcb.hpp **** private:
  10:src/../h/tcb.hpp ****     using Body = void (*)();
  11:src/../h/tcb.hpp ****     struct Context {
  12:src/../h/tcb.hpp ****         uint64 ra;
  13:src/../h/tcb.hpp ****         uint64 sp;
  14:src/../h/tcb.hpp ****     };
  15:src/../h/tcb.hpp ****     Body body;
  16:src/../h/tcb.hpp ****     uint64 *stack;
  17:src/../h/tcb.hpp ****     Context context;
  18:src/../h/tcb.hpp ****     uint64 timeSlice;
  19:src/../h/tcb.hpp ****     bool finished;
  20:src/../h/tcb.hpp ****     uint64 sleeping = 0;
  21:src/../h/tcb.hpp **** 
  22:src/../h/tcb.hpp ****     static uint64 timeSLiceCounter;
  23:src/../h/tcb.hpp ****     static uint64 constexpr STACK_SIZE = 1024;
  24:src/../h/tcb.hpp ****     static uint64 constexpr TIME_SLICE = 2;
  25:src/../h/tcb.hpp **** public:
  26:src/../h/tcb.hpp ****     //using Body = void (*)();
  27:src/../h/tcb.hpp **** 
  28:src/../h/tcb.hpp ****     static TCB *createThread(Body body);
  29:src/../h/tcb.hpp ****     static TCB *createIdleThread(Body body);
  30:src/../h/tcb.hpp **** 
  31:src/../h/tcb.hpp ****     bool isFinished() const { return finished; }
  32:src/../h/tcb.hpp ****     void setFinished(bool f) { TCB::finished = f; }
  33:src/../h/tcb.hpp ****     uint64 getTimeSlice() const { return timeSlice; }
  34:src/../h/tcb.hpp ****     static void thread_exit();
  35:src/../h/tcb.hpp ****     static int time_sleep (time_t);
  36:src/../h/tcb.hpp ****     static void dispatch();
  37:src/../h/tcb.hpp ****     static void dispatchSleep();
  38:src/../h/tcb.hpp ****     static void yield();
  39:src/../h/tcb.hpp **** 
  40:src/../h/tcb.hpp ****     ~TCB() { delete[] stack; }
  41:src/../h/tcb.hpp **** 
  42:src/../h/tcb.hpp ****     static TCB *running;
  43:src/../h/tcb.hpp **** 
  44:src/../h/tcb.hpp **** private:
  45:src/../h/tcb.hpp ****     TCB(Body body, uint64 timeSlice)
  46:src/../h/tcb.hpp ****             : body(body), stack(body != nullptr ? new uint64[STACK_SIZE] : nullptr),
  47:src/../h/tcb.hpp ****               context({(uint64) &threadWrapper,
  48:src/../h/tcb.hpp ****                        stack != nullptr ? (uint64) &stack[STACK_SIZE] : 0}),
  49:src/../h/tcb.hpp ****               timeSlice(timeSlice),
  50:src/../h/tcb.hpp ****               finished(false) {
  43              		.loc 2 50 29
  44 002c 23302501 		sd	s2,0(a0)
  46:src/../h/tcb.hpp ****               context({(uint64) &threadWrapper,
  45              		.loc 2 46 49
  46 0030 630A0900 		beqz	s2,.L6
  46:src/../h/tcb.hpp ****               context({(uint64) &threadWrapper,
  47              		.loc 2 46 72
  48 0034 37250000 		li	a0,8192
  49              	.LEHB1:
  50 0038 97000000 		call	_Znam@plt
  50      E7800000 
  51              	.LVL4:
  52 0040 6F008000 		j	.L2
  53              	.L6:
GAS LISTING /tmp/cclKPlFC.s 			page 3


  46:src/../h/tcb.hpp ****               context({(uint64) &threadWrapper,
  54              		.loc 2 46 49
  55 0044 13050000 		li	a0,0
  56              	.L2:
  57              		.loc 2 50 29
  58 0048 23B4A400 		sd	a0,8(s1)
  59 004c 97070000 		lla	a5,_ZN3TCB13threadWrapperEv
  59      93870700 
  60 0054 23B8F400 		sd	a5,16(s1)
  48:src/../h/tcb.hpp ****               timeSlice(timeSlice),
  61              		.loc 2 48 41
  62 0058 630A0502 		beqz	a0,.L7
  48:src/../h/tcb.hpp ****               timeSlice(timeSlice),
  63              		.loc 2 48 52
  64 005c B7270000 		li	a5,8192
  65 0060 B307F500 		add	a5,a0,a5
  66              	.L3:
  67              		.loc 2 50 29
  68 0064 23BCF400 		sd	a5,24(s1)
  69 0068 93072000 		li	a5,2
  70 006c 23B0F402 		sd	a5,32(s1)
  71 0070 23840402 		sb	zero,40(s1)
  72 0074 23B80402 		sd	zero,48(s1)
  51:src/../h/tcb.hpp ****         if (body != nullptr) {
  73              		.loc 2 51 9 is_stmt 1
  74 0078 630C0902 		beqz	s2,.L1
  52:src/../h/tcb.hpp ****             Scheduler::put(this);
  75              		.loc 2 52 13
  76              		.loc 2 52 27 is_stmt 0
  77 007c 13850400 		mv	a0,s1
  78 0080 97000000 		call	_ZN9Scheduler3putEP3TCB@plt
  78      E7800000 
  79              	.LVL5:
  80              	.LEHE1:
  81 0088 6F008002 		j	.L1
  82              	.L7:
  48:src/../h/tcb.hpp ****               timeSlice(timeSlice),
  83              		.loc 2 48 41
  84 008c 93070000 		li	a5,0
  85 0090 6FF05FFD 		j	.L3
  86              	.L8:
  87 0094 13090500 		mv	s2,a0
  88              	.LVL6:
  89              	.LBE15:
  90              	.LBE14:
  91              		.loc 1 8 68
  92 0098 13850400 		mv	a0,s1
  93 009c 97000000 		call	_ZdlPv@plt
  93      E7800000 
  94              	.LVL7:
  95 00a4 13050900 		mv	a0,s2
  96              	.LEHB2:
  97 00a8 97000000 		call	_Unwind_Resume@plt
  97      E7800000 
  98              	.LVL8:
  99              	.LEHE2:
 100              	.L1:
GAS LISTING /tmp/cclKPlFC.s 			page 4


 101              		.loc 1 8 71
 102 00b0 13850400 		mv	a0,s1
 103 00b4 83308101 		ld	ra,24(sp)
 104              		.cfi_restore 1
 105 00b8 03340101 		ld	s0,16(sp)
 106              		.cfi_restore 8
 107              		.cfi_def_cfa 2, 32
 108 00bc 83348100 		ld	s1,8(sp)
 109              		.cfi_restore 9
 110              	.LVL9:
 111 00c0 03390100 		ld	s2,0(sp)
 112              		.cfi_restore 18
 113              	.LVL10:
 114 00c4 13010102 		addi	sp,sp,32
 115              		.cfi_def_cfa_offset 0
 116 00c8 67800000 		jr	ra
 117              		.cfi_endproc
 118              	.LFE37:
 119              		.globl	__gxx_personality_v0
 120              		.section	.gcc_except_table,"a",@progbits
 121              	.LLSDA37:
 122 0000 FF       		.byte	0xff
 123 0001 FF       		.byte	0xff
 124 0002 03       		.byte	0x3
 125 0003 27       		.byte	0x27
 126 0004 00000000 		.4byte	.LEHB0-.LFB37
 127 0008 00000000 		.4byte	.LEHE0-.LEHB0
 128 000c 00000000 		.4byte	0
 129 0010 00       		.byte	0
 130 0011 00000000 		.4byte	.LEHB1-.LFB37
 131 0015 00000000 		.4byte	.LEHE1-.LEHB1
 132 0019 00000000 		.4byte	.L8-.LFB37
 133 001d 00       		.byte	0
 134 001e 00000000 		.4byte	.LEHB2-.LFB37
 135 0022 00000000 		.4byte	.LEHE2-.LEHB2
 136 0026 00000000 		.4byte	0
 137 002a 00       		.byte	0
 138              		.text
 140              		.align	2
 141              		.globl	_ZN3TCB16createIdleThreadEPFvvE
 143              	_ZN3TCB16createIdleThreadEPFvvE:
 144              	.LFB38:
   9:src/tcb.cpp   **** TCB *TCB::createIdleThread(Body body) { return new TCB(body, TIME_SLICE, true); }
 145              		.loc 1 9 39 is_stmt 1
 146              		.cfi_startproc
 147              		.cfi_personality 0x9b,DW.ref.__gxx_personality_v0
 148              		.cfi_lsda 0x1b,.LLSDA38
 149              	.LVL11:
 150 00cc 130101FE 		addi	sp,sp,-32
 151              		.cfi_def_cfa_offset 32
 152 00d0 233C1100 		sd	ra,24(sp)
 153 00d4 23388100 		sd	s0,16(sp)
 154 00d8 23349100 		sd	s1,8(sp)
 155 00dc 23302101 		sd	s2,0(sp)
 156              		.cfi_offset 1, -8
 157              		.cfi_offset 8, -16
 158              		.cfi_offset 9, -24
GAS LISTING /tmp/cclKPlFC.s 			page 5


 159              		.cfi_offset 18, -32
 160 00e0 13040102 		addi	s0,sp,32
 161              		.cfi_def_cfa 8, 0
 162 00e4 13090500 		mv	s2,a0
 163              		.loc 1 9 41
 164              		.loc 1 9 78 is_stmt 0
 165 00e8 13058003 		li	a0,56
 166              	.LVL12:
 167              	.LEHB3:
 168 00ec 97000000 		call	_Znwm@plt
 168      E7800000 
 169              	.LVL13:
 170              	.LEHE3:
 171 00f4 93040500 		mv	s1,a0
 172              	.LVL14:
 173              	.LBB16:
 174              	.LBB17:
  53:src/../h/tcb.hpp ****         }
  54:src/../h/tcb.hpp ****     }
  55:src/../h/tcb.hpp ****     TCB(Body body, uint64 timeSlice, bool put)
  56:src/../h/tcb.hpp ****             : body(body), stack(body != nullptr ? new uint64[STACK_SIZE] : nullptr),
  57:src/../h/tcb.hpp ****               context({(uint64) &threadWrapper,
  58:src/../h/tcb.hpp ****                        stack != nullptr ? (uint64) &stack[STACK_SIZE] : 0}),
  59:src/../h/tcb.hpp ****               timeSlice(timeSlice),
  60:src/../h/tcb.hpp ****               finished(false) {}
 175              		.loc 2 60 29
 176 00f8 23302501 		sd	s2,0(a0)
  56:src/../h/tcb.hpp ****               context({(uint64) &threadWrapper,
 177              		.loc 2 56 49
 178 00fc 630A0900 		beqz	s2,.L14
  56:src/../h/tcb.hpp ****               context({(uint64) &threadWrapper,
 179              		.loc 2 56 72
 180 0100 37250000 		li	a0,8192
 181              	.LEHB4:
 182 0104 97000000 		call	_Znam@plt
 182      E7800000 
 183              	.LVL15:
 184              	.LEHE4:
 185 010c 6F008000 		j	.L11
 186              	.L14:
  56:src/../h/tcb.hpp ****               context({(uint64) &threadWrapper,
 187              		.loc 2 56 49
 188 0110 13050000 		li	a0,0
 189              	.L11:
 190              		.loc 2 60 29
 191 0114 23B4A400 		sd	a0,8(s1)
 192 0118 97070000 		lla	a5,_ZN3TCB13threadWrapperEv
 192      93870700 
 193 0120 23B8F400 		sd	a5,16(s1)
  58:src/../h/tcb.hpp ****               timeSlice(timeSlice),
 194              		.loc 2 58 41
 195 0124 630E0502 		beqz	a0,.L15
  58:src/../h/tcb.hpp ****               timeSlice(timeSlice),
 196              		.loc 2 58 52
 197 0128 B7270000 		li	a5,8192
 198 012c 3305F500 		add	a0,a0,a5
 199              	.L12:
GAS LISTING /tmp/cclKPlFC.s 			page 6


 200              		.loc 2 60 29
 201 0130 23BCA400 		sd	a0,24(s1)
 202 0134 93072000 		li	a5,2
 203 0138 23B0F402 		sd	a5,32(s1)
 204 013c 23840402 		sb	zero,40(s1)
 205 0140 23B80402 		sd	zero,48(s1)
 206              	.LVL16:
 207              	.LBE17:
 208              	.LBE16:
 209              		.loc 1 9 81
 210 0144 13850400 		mv	a0,s1
 211 0148 83308101 		ld	ra,24(sp)
 212              		.cfi_remember_state
 213              		.cfi_restore 1
 214 014c 03340101 		ld	s0,16(sp)
 215              		.cfi_restore 8
 216              		.cfi_def_cfa 2, 32
 217 0150 83348100 		ld	s1,8(sp)
 218              		.cfi_restore 9
 219 0154 03390100 		ld	s2,0(sp)
 220              		.cfi_restore 18
 221              	.LVL17:
 222 0158 13010102 		addi	sp,sp,32
 223              		.cfi_def_cfa_offset 0
 224 015c 67800000 		jr	ra
 225              	.LVL18:
 226              	.L15:
 227              		.cfi_restore_state
 228              	.LBB19:
 229              	.LBB18:
  58:src/../h/tcb.hpp ****               timeSlice(timeSlice),
 230              		.loc 2 58 41
 231 0160 13050000 		li	a0,0
 232 0164 6FF0DFFC 		j	.L12
 233              	.L16:
 234 0168 13090500 		mv	s2,a0
 235              	.LVL19:
 236              	.LBE18:
 237              	.LBE19:
 238              		.loc 1 9 78
 239 016c 13850400 		mv	a0,s1
 240 0170 97000000 		call	_ZdlPv@plt
 240      E7800000 
 241              	.LVL20:
 242 0178 13050900 		mv	a0,s2
 243              	.LEHB5:
 244 017c 97000000 		call	_Unwind_Resume@plt
 244      E7800000 
 245              	.LVL21:
 246              	.LEHE5:
 247              		.cfi_endproc
 248              	.LFE38:
 249              		.section	.gcc_except_table
 250              	.LLSDA38:
 251 002b FF       		.byte	0xff
 252 002c FF       		.byte	0xff
 253 002d 03       		.byte	0x3
GAS LISTING /tmp/cclKPlFC.s 			page 7


 254 002e 27       		.byte	0x27
 255 002f 00000000 		.4byte	.LEHB3-.LFB38
 256 0033 00000000 		.4byte	.LEHE3-.LEHB3
 257 0037 00000000 		.4byte	0
 258 003b 00       		.byte	0
 259 003c 00000000 		.4byte	.LEHB4-.LFB38
 260 0040 00000000 		.4byte	.LEHE4-.LEHB4
 261 0044 00000000 		.4byte	.L16-.LFB38
 262 0048 00       		.byte	0
 263 0049 00000000 		.4byte	.LEHB5-.LFB38
 264 004d 00000000 		.4byte	.LEHE5-.LEHB5
 265 0051 00000000 		.4byte	0
 266 0055 00       		.byte	0
 267              		.text
 269              		.align	2
 270              		.globl	_ZN3TCB5yieldEv
 272              	_ZN3TCB5yieldEv:
 273              	.LFB39:
  10:src/tcb.cpp   **** void TCB::yield() {
 274              		.loc 1 10 19 is_stmt 1
 275              		.cfi_startproc
 276 0184 130101FF 		addi	sp,sp,-16
 277              		.cfi_def_cfa_offset 16
 278 0188 23348100 		sd	s0,8(sp)
 279              		.cfi_offset 8, -8
 280 018c 13040101 		addi	s0,sp,16
 281              		.cfi_def_cfa 8, 0
  11:src/tcb.cpp   ****     __asm__ volatile("ecall");
 282              		.loc 1 11 5
 283              		.loc 1 11 30 is_stmt 0
 284              	#APP
 285              	# 11 "src/tcb.cpp" 1
  12              	};
 286              		ecall
 287              	# 0 "" 2
 288              		.loc 1 12 1
 289              	#NO_APP
 290 0194 03348100 		ld	s0,8(sp)
 291              		.cfi_restore 8
 292              		.cfi_def_cfa 2, 16
 293 0198 13010101 		addi	sp,sp,16
 294              		.cfi_def_cfa_offset 0
 295 019c 67800000 		jr	ra
 296              		.cfi_endproc
 297              	.LFE39:
 299              		.align	2
 300              		.globl	_ZN3TCB13threadWrapperEv
 302              	_ZN3TCB13threadWrapperEv:
 303              	.LFB42:
  13:src/tcb.cpp   **** #include "../h/print.hpp"
  14:src/tcb.cpp   **** void TCB::dispatch() {
  15:src/tcb.cpp   ****     TCB *old = running;
  16:src/tcb.cpp   ****     //printLine("Old: ", (uint64)old);
  17:src/tcb.cpp   ****     //printLine("Idle: ", (uint64)Scheduler::idle);
  18:src/tcb.cpp   ****     if (!old->isFinished()) {
  19:src/tcb.cpp   ****         Scheduler::put(old);
  20:src/tcb.cpp   ****     }
GAS LISTING /tmp/cclKPlFC.s 			page 8


  21:src/tcb.cpp   ****     running = Scheduler::get();
  22:src/tcb.cpp   ****     //printLine("Running: ", (uint64)running);
  23:src/tcb.cpp   ****     TCB::contextSwitch(&old->context, &running->context);
  24:src/tcb.cpp   **** }
  25:src/tcb.cpp   **** void TCB::dispatchSleep() {
  26:src/tcb.cpp   ****     TCB *old = running;
  27:src/tcb.cpp   **** 
  28:src/tcb.cpp   ****     Scheduler::putSleep(old);
  29:src/tcb.cpp   **** 
  30:src/tcb.cpp   ****     running = Scheduler::get();
  31:src/tcb.cpp   **** 
  32:src/tcb.cpp   ****     TCB::contextSwitch(&old->context, &running->context);
  33:src/tcb.cpp   **** }
  34:src/tcb.cpp   **** void TCB::threadWrapper() {
 304              		.loc 1 34 27 is_stmt 1
 305              		.cfi_startproc
 306 01a0 130101FE 		addi	sp,sp,-32
 307              		.cfi_def_cfa_offset 32
 308 01a4 233C1100 		sd	ra,24(sp)
 309 01a8 23388100 		sd	s0,16(sp)
 310 01ac 23349100 		sd	s1,8(sp)
 311              		.cfi_offset 1, -8
 312              		.cfi_offset 8, -16
 313              		.cfi_offset 9, -24
 314 01b0 13040102 		addi	s0,sp,32
 315              		.cfi_def_cfa 8, 0
  35:src/tcb.cpp   ****     Riscv::popSppSpie();
 316              		.loc 1 35 5
 317              		.loc 1 35 22 is_stmt 0
 318 01b4 97000000 		call	_ZN5Riscv10popSppSpieEv@plt
 318      E7800000 
 319              	.LVL22:
  36:src/tcb.cpp   ****     running->body();
 320              		.loc 1 36 5 is_stmt 1
 321              		.loc 1 36 14 is_stmt 0
 322 01bc 97040000 		lla	s1,.LANCHOR0
 322      93840400 
 323 01c4 83B70400 		ld	a5,0(s1)
 324 01c8 83B70700 		ld	a5,0(a5)
 325              		.loc 1 36 18
 326 01cc E7800700 		jalr	a5
 327              	.LVL23:
  37:src/tcb.cpp   ****     running->setFinished(true);
 328              		.loc 1 37 5 is_stmt 1
 329              		.loc 1 37 25 is_stmt 0
 330 01d0 83B70400 		ld	a5,0(s1)
 331              	.LVL24:
 332              	.LBB20:
 333              	.LBB21:
  32:src/../h/tcb.hpp ****     uint64 getTimeSlice() const { return timeSlice; }
 334              		.loc 2 32 32 is_stmt 1
  32:src/../h/tcb.hpp ****     uint64 getTimeSlice() const { return timeSlice; }
 335              		.loc 2 32 46 is_stmt 0
 336 01d4 13071000 		li	a4,1
 337 01d8 2384E702 		sb	a4,40(a5)
 338              	.LVL25:
 339              	.LBE21:
GAS LISTING /tmp/cclKPlFC.s 			page 9


 340              	.LBE20:
  38:src/tcb.cpp   ****     TCB::yield();
 341              		.loc 1 38 5 is_stmt 1
 342              		.loc 1 38 15 is_stmt 0
 343 01dc 97000000 		call	_ZN3TCB5yieldEv
 343      E7800000 
 344              	.LVL26:
  39:src/tcb.cpp   **** }
 345              		.loc 1 39 1
 346 01e4 83308101 		ld	ra,24(sp)
 347              		.cfi_restore 1
 348 01e8 03340101 		ld	s0,16(sp)
 349              		.cfi_restore 8
 350              		.cfi_def_cfa 2, 32
 351 01ec 83348100 		ld	s1,8(sp)
 352              		.cfi_restore 9
 353 01f0 13010102 		addi	sp,sp,32
 354              		.cfi_def_cfa_offset 0
 355 01f4 67800000 		jr	ra
 356              		.cfi_endproc
 357              	.LFE42:
 359              		.align	2
 360              		.globl	_ZN3TCB8dispatchEv
 362              	_ZN3TCB8dispatchEv:
 363              	.LFB40:
  14:src/tcb.cpp   ****     TCB *old = running;
 364              		.loc 1 14 22 is_stmt 1
 365              		.cfi_startproc
 366 01f8 130101FE 		addi	sp,sp,-32
 367              		.cfi_def_cfa_offset 32
 368 01fc 233C1100 		sd	ra,24(sp)
 369 0200 23388100 		sd	s0,16(sp)
 370 0204 23349100 		sd	s1,8(sp)
 371              		.cfi_offset 1, -8
 372              		.cfi_offset 8, -16
 373              		.cfi_offset 9, -24
 374 0208 13040102 		addi	s0,sp,32
 375              		.cfi_def_cfa 8, 0
  15:src/tcb.cpp   ****     //printLine("Old: ", (uint64)old);
 376              		.loc 1 15 5
  15:src/tcb.cpp   ****     //printLine("Old: ", (uint64)old);
 377              		.loc 1 15 10 is_stmt 0
 378 020c 97040000 		ld	s1,.LANCHOR0
 378      83B40400 
 379              	.LVL27:
  18:src/tcb.cpp   ****         Scheduler::put(old);
 380              		.loc 1 18 5 is_stmt 1
 381              	.LBB22:
 382              	.LBB23:
  31:src/../h/tcb.hpp ****     void setFinished(bool f) { TCB::finished = f; }
 383              		.loc 2 31 31
  31:src/../h/tcb.hpp ****     void setFinished(bool f) { TCB::finished = f; }
 384              		.loc 2 31 38 is_stmt 0
 385 0214 83C78402 		lbu	a5,40(s1)
 386              	.LVL28:
 387              	.LBE23:
 388              	.LBE22:
GAS LISTING /tmp/cclKPlFC.s 			page 10


  18:src/tcb.cpp   ****         Scheduler::put(old);
 389              		.loc 1 18 5
 390 0218 638C0702 		beqz	a5,.L26
 391              	.L24:
  21:src/tcb.cpp   ****     //printLine("Running: ", (uint64)running);
 392              		.loc 1 21 5 is_stmt 1
  21:src/tcb.cpp   ****     //printLine("Running: ", (uint64)running);
 393              		.loc 1 21 29 is_stmt 0
 394 021c 97000000 		call	_ZN9Scheduler3getEv@plt
 394      E7800000 
 395              	.LVL29:
  21:src/tcb.cpp   ****     //printLine("Running: ", (uint64)running);
 396              		.loc 1 21 13
 397 0224 97070000 		sd	a0,.LANCHOR0,a5
 397      23B0A700 
  23:src/tcb.cpp   **** }
 398              		.loc 1 23 5 is_stmt 1
  23:src/tcb.cpp   **** }
 399              		.loc 1 23 23 is_stmt 0
 400 022c 93050501 		addi	a1,a0,16
 401 0230 13850401 		addi	a0,s1,16
 402 0234 97000000 		call	_ZN3TCB13contextSwitchEPNS_7ContextES1_@plt
 402      E7800000 
 403              	.LVL30:
  24:src/tcb.cpp   **** void TCB::dispatchSleep() {
 404              		.loc 1 24 1
 405 023c 83308101 		ld	ra,24(sp)
 406              		.cfi_remember_state
 407              		.cfi_restore 1
 408 0240 03340101 		ld	s0,16(sp)
 409              		.cfi_restore 8
 410              		.cfi_def_cfa 2, 32
 411 0244 83348100 		ld	s1,8(sp)
 412              		.cfi_restore 9
 413              	.LVL31:
 414 0248 13010102 		addi	sp,sp,32
 415              		.cfi_def_cfa_offset 0
 416 024c 67800000 		jr	ra
 417              	.LVL32:
 418              	.L26:
 419              		.cfi_restore_state
  19:src/tcb.cpp   ****     }
 420              		.loc 1 19 9 is_stmt 1
  19:src/tcb.cpp   ****     }
 421              		.loc 1 19 23 is_stmt 0
 422 0250 13850400 		mv	a0,s1
 423 0254 97000000 		call	_ZN9Scheduler3putEP3TCB@plt
 423      E7800000 
 424              	.LVL33:
 425 025c 6FF01FFC 		j	.L24
 426              		.cfi_endproc
 427              	.LFE40:
 429              		.align	2
 430              		.globl	_ZN3TCB13dispatchSleepEv
 432              	_ZN3TCB13dispatchSleepEv:
 433              	.LFB41:
  25:src/tcb.cpp   ****     TCB *old = running;
GAS LISTING /tmp/cclKPlFC.s 			page 11


 434              		.loc 1 25 27 is_stmt 1
 435              		.cfi_startproc
 436 0260 130101FE 		addi	sp,sp,-32
 437              		.cfi_def_cfa_offset 32
 438 0264 233C1100 		sd	ra,24(sp)
 439 0268 23388100 		sd	s0,16(sp)
 440 026c 23349100 		sd	s1,8(sp)
 441 0270 23302101 		sd	s2,0(sp)
 442              		.cfi_offset 1, -8
 443              		.cfi_offset 8, -16
 444              		.cfi_offset 9, -24
 445              		.cfi_offset 18, -32
 446 0274 13040102 		addi	s0,sp,32
 447              		.cfi_def_cfa 8, 0
  26:src/tcb.cpp   **** 
 448              		.loc 1 26 5
  26:src/tcb.cpp   **** 
 449              		.loc 1 26 10 is_stmt 0
 450 0278 17090000 		lla	s2,.LANCHOR0
 450      13090900 
 451 0280 83340900 		ld	s1,0(s2)
 452              	.LVL34:
  28:src/tcb.cpp   **** 
 453              		.loc 1 28 5 is_stmt 1
  28:src/tcb.cpp   **** 
 454              		.loc 1 28 24 is_stmt 0
 455 0284 13850400 		mv	a0,s1
 456 0288 97000000 		call	_ZN9Scheduler8putSleepEP3TCB@plt
 456      E7800000 
 457              	.LVL35:
  30:src/tcb.cpp   **** 
 458              		.loc 1 30 5 is_stmt 1
  30:src/tcb.cpp   **** 
 459              		.loc 1 30 29 is_stmt 0
 460 0290 97000000 		call	_ZN9Scheduler3getEv@plt
 460      E7800000 
 461              	.LVL36:
  30:src/tcb.cpp   **** 
 462              		.loc 1 30 13
 463 0298 2330A900 		sd	a0,0(s2)
  32:src/tcb.cpp   **** }
 464              		.loc 1 32 5 is_stmt 1
  32:src/tcb.cpp   **** }
 465              		.loc 1 32 23 is_stmt 0
 466 029c 93050501 		addi	a1,a0,16
 467 02a0 13850401 		addi	a0,s1,16
 468 02a4 97000000 		call	_ZN3TCB13contextSwitchEPNS_7ContextES1_@plt
 468      E7800000 
 469              	.LVL37:
  33:src/tcb.cpp   **** void TCB::threadWrapper() {
 470              		.loc 1 33 1
 471 02ac 83308101 		ld	ra,24(sp)
 472              		.cfi_restore 1
 473 02b0 03340101 		ld	s0,16(sp)
 474              		.cfi_restore 8
 475              		.cfi_def_cfa 2, 32
 476 02b4 83348100 		ld	s1,8(sp)
GAS LISTING /tmp/cclKPlFC.s 			page 12


 477              		.cfi_restore 9
 478              	.LVL38:
 479 02b8 03390100 		ld	s2,0(sp)
 480              		.cfi_restore 18
 481 02bc 13010102 		addi	sp,sp,32
 482              		.cfi_def_cfa_offset 0
 483 02c0 67800000 		jr	ra
 484              		.cfi_endproc
 485              	.LFE41:
 487              		.align	2
 488              		.globl	_ZN3TCB11thread_exitEv
 490              	_ZN3TCB11thread_exitEv:
 491              	.LFB43:
  40:src/tcb.cpp   **** 
  41:src/tcb.cpp   **** void TCB::thread_exit(){
 492              		.loc 1 41 24 is_stmt 1
 493              		.cfi_startproc
 494 02c4 130101FF 		addi	sp,sp,-16
 495              		.cfi_def_cfa_offset 16
 496 02c8 23341100 		sd	ra,8(sp)
 497 02cc 23308100 		sd	s0,0(sp)
 498              		.cfi_offset 1, -8
 499              		.cfi_offset 8, -16
 500 02d0 13040101 		addi	s0,sp,16
 501              		.cfi_def_cfa 8, 0
  42:src/tcb.cpp   ****     running->setFinished(true); // Also can running = Scheduler::get(); TCB::contextSwitch...;
 502              		.loc 1 42 5
 503              	.LVL39:
 504              	.LBB24:
 505              	.LBB25:
  32:src/../h/tcb.hpp ****     uint64 getTimeSlice() const { return timeSlice; }
 506              		.loc 2 32 32
  32:src/../h/tcb.hpp ****     uint64 getTimeSlice() const { return timeSlice; }
 507              		.loc 2 32 46 is_stmt 0
 508 02d4 97070000 		ld	a5,.LANCHOR0
 508      83B70700 
 509 02dc 13071000 		li	a4,1
 510 02e0 2384E702 		sb	a4,40(a5)
 511              	.LVL40:
 512              	.LBE25:
 513              	.LBE24:
  43:src/tcb.cpp   ****     TCB::yield();
 514              		.loc 1 43 5 is_stmt 1
 515              		.loc 1 43 15 is_stmt 0
 516 02e4 97000000 		call	_ZN3TCB5yieldEv
 516      E7800000 
 517              	.LVL41:
  44:src/tcb.cpp   **** }
 518              		.loc 1 44 1
 519 02ec 83308100 		ld	ra,8(sp)
 520              		.cfi_restore 1
 521 02f0 03340100 		ld	s0,0(sp)
 522              		.cfi_restore 8
 523              		.cfi_def_cfa 2, 16
 524 02f4 13010101 		addi	sp,sp,16
 525              		.cfi_def_cfa_offset 0
 526 02f8 67800000 		jr	ra
GAS LISTING /tmp/cclKPlFC.s 			page 13


 527              		.cfi_endproc
 528              	.LFE43:
 530              		.align	2
 531              		.globl	_ZN3TCB10time_sleepEm
 533              	_ZN3TCB10time_sleepEm:
 534              	.LFB44:
  45:src/tcb.cpp   **** #include "../h/print.hpp"
  46:src/tcb.cpp   **** #include "../h/riscv.hpp"
  47:src/tcb.cpp   **** int TCB::time_sleep (time_t t){
 535              		.loc 1 47 31 is_stmt 1
 536              		.cfi_startproc
 537              	.LVL42:
 538 02fc 130101FF 		addi	sp,sp,-16
 539              		.cfi_def_cfa_offset 16
 540 0300 23341100 		sd	ra,8(sp)
 541 0304 23308100 		sd	s0,0(sp)
 542              		.cfi_offset 1, -8
 543              		.cfi_offset 8, -16
 544 0308 13040101 		addi	s0,sp,16
 545              		.cfi_def_cfa 8, 0
  48:src/tcb.cpp   ****     running->sleeping = t;
 546              		.loc 1 48 5
 547              		.loc 1 48 14 is_stmt 0
 548 030c 97070000 		ld	a5,.LANCHOR0
 548      83B70700 
 549              		.loc 1 48 23
 550 0314 23B8A702 		sd	a0,48(a5)
  49:src/tcb.cpp   ****     TCB::yield();
 551              		.loc 1 49 5 is_stmt 1
 552              		.loc 1 49 15 is_stmt 0
 553 0318 97000000 		call	_ZN3TCB5yieldEv
 553      E7800000 
 554              	.LVL43:
  50:src/tcb.cpp   ****     return 0;
 555              		.loc 1 50 5 is_stmt 1
  51:src/tcb.cpp   **** }...
 556              		.loc 1 51 1 is_stmt 0
 557 0320 13050000 		li	a0,0
 558 0324 83308100 		ld	ra,8(sp)
 559              		.cfi_restore 1
 560 0328 03340100 		ld	s0,0(sp)
 561              		.cfi_restore 8
 562              		.cfi_def_cfa 2, 16
 563 032c 13010101 		addi	sp,sp,16
 564              		.cfi_def_cfa_offset 0
 565 0330 67800000 		jr	ra
 566              		.cfi_endproc
 567              	.LFE44:
 569              		.globl	_ZN3TCB16timeSLiceCounterE
 570              		.globl	_ZN3TCB7runningE
 571              		.bss
 572              		.align	3
 573              		.set	.LANCHOR0,. + 0
 576              	_ZN3TCB7runningE:
 577 0000 00000000 		.zero	8
 577      00000000 
 580              	_ZN3TCB16timeSLiceCounterE:
GAS LISTING /tmp/cclKPlFC.s 			page 14


 581 0008 00000000 		.zero	8
 581      00000000 
 582              		.text
 583              	.Letext0:
 584              		.file 3 "src/../h/../lib/hw.h"
 585              		.file 4 "src/../h/scheduler.hpp"
 586              		.file 5 "src/../h/riscv.hpp"
 3196              		.align	3
 3199              	DW.ref.__gxx_personality_v0:
 3200 0000 00000000 		.dword	__gxx_personality_v0
 3200      00000000 
 3201              		.ident	"GCC: (Ubuntu 9.4.0-1ubuntu1~20.04) 9.4.0"
 3202              		.section	.note.GNU-stack,"",@progbits
GAS LISTING /tmp/cclKPlFC.s 			page 15


DEFINED SYMBOLS
                            *ABS*:0000000000000000 tcb.cpp
     /tmp/cclKPlFC.s:9      .text:0000000000000000 _ZN3TCB12createThreadEPFvvE
     /tmp/cclKPlFC.s:13     .text:0000000000000000 .L0 
     /tmp/cclKPlFC.s:3199   .data.rel.local.DW.ref.__gxx_personality_v0:0000000000000000 DW.ref.__gxx_personality_v0
     /tmp/cclKPlFC.s:17     .text:0000000000000000 .L0 
     /tmp/cclKPlFC.s:18     .text:0000000000000004 .L0 
     /tmp/cclKPlFC.s:23     .text:0000000000000014 .L0 
     /tmp/cclKPlFC.s:24     .text:0000000000000014 .L0 
     /tmp/cclKPlFC.s:25     .text:0000000000000014 .L0 
     /tmp/cclKPlFC.s:26     .text:0000000000000014 .L0 
     /tmp/cclKPlFC.s:28     .text:0000000000000018 .L0 
     /tmp/cclKPlFC.s:31     .text:000000000000001c .L0 
     /tmp/cclKPlFC.s:32     .text:000000000000001c .L0 
     /tmp/cclKPlFC.s:44     .text:000000000000002c .L0 
     /tmp/cclKPlFC.s:46     .text:0000000000000030 .L0 
     /tmp/cclKPlFC.s:48     .text:0000000000000034 .L0 
     /tmp/cclKPlFC.s:55     .text:0000000000000044 .L0 
     /tmp/cclKPlFC.s:58     .text:0000000000000048 .L0 
     /tmp/cclKPlFC.s:302    .text:00000000000001a0 _ZN3TCB13threadWrapperEv
     /tmp/cclKPlFC.s:62     .text:0000000000000058 .L0 
     /tmp/cclKPlFC.s:64     .text:000000000000005c .L0 
     /tmp/cclKPlFC.s:68     .text:0000000000000064 .L0 
     /tmp/cclKPlFC.s:74     .text:0000000000000078 .L0 
     /tmp/cclKPlFC.s:76     .text:000000000000007c .L0 
     /tmp/cclKPlFC.s:77     .text:000000000000007c .L0 
     /tmp/cclKPlFC.s:84     .text:000000000000008c .L0 
     /tmp/cclKPlFC.s:92     .text:0000000000000098 .L0 
     /tmp/cclKPlFC.s:102    .text:00000000000000b0 .L0 
     /tmp/cclKPlFC.s:104    .text:00000000000000b8 .L0 
     /tmp/cclKPlFC.s:106    .text:00000000000000bc .L0 
     /tmp/cclKPlFC.s:107    .text:00000000000000bc .L0 
     /tmp/cclKPlFC.s:109    .text:00000000000000c0 .L0 
     /tmp/cclKPlFC.s:112    .text:00000000000000c4 .L0 
     /tmp/cclKPlFC.s:115    .text:00000000000000c8 .L0 
     /tmp/cclKPlFC.s:117    .text:00000000000000cc .L0 
     /tmp/cclKPlFC.s:143    .text:00000000000000cc _ZN3TCB16createIdleThreadEPFvvE
     /tmp/cclKPlFC.s:146    .text:00000000000000cc .L0 
     /tmp/cclKPlFC.s:150    .text:00000000000000cc .L0 
     /tmp/cclKPlFC.s:151    .text:00000000000000d0 .L0 
     /tmp/cclKPlFC.s:156    .text:00000000000000e0 .L0 
     /tmp/cclKPlFC.s:157    .text:00000000000000e0 .L0 
     /tmp/cclKPlFC.s:158    .text:00000000000000e0 .L0 
     /tmp/cclKPlFC.s:159    .text:00000000000000e0 .L0 
     /tmp/cclKPlFC.s:161    .text:00000000000000e4 .L0 
     /tmp/cclKPlFC.s:164    .text:00000000000000e8 .L0 
     /tmp/cclKPlFC.s:165    .text:00000000000000e8 .L0 
     /tmp/cclKPlFC.s:176    .text:00000000000000f8 .L0 
     /tmp/cclKPlFC.s:178    .text:00000000000000fc .L0 
     /tmp/cclKPlFC.s:180    .text:0000000000000100 .L0 
     /tmp/cclKPlFC.s:188    .text:0000000000000110 .L0 
     /tmp/cclKPlFC.s:191    .text:0000000000000114 .L0 
     /tmp/cclKPlFC.s:195    .text:0000000000000124 .L0 
     /tmp/cclKPlFC.s:197    .text:0000000000000128 .L0 
     /tmp/cclKPlFC.s:201    .text:0000000000000130 .L0 
     /tmp/cclKPlFC.s:210    .text:0000000000000144 .L0 
     /tmp/cclKPlFC.s:212    .text:000000000000014c .L0 
GAS LISTING /tmp/cclKPlFC.s 			page 16


     /tmp/cclKPlFC.s:213    .text:000000000000014c .L0 
     /tmp/cclKPlFC.s:215    .text:0000000000000150 .L0 
     /tmp/cclKPlFC.s:216    .text:0000000000000150 .L0 
     /tmp/cclKPlFC.s:218    .text:0000000000000154 .L0 
     /tmp/cclKPlFC.s:220    .text:0000000000000158 .L0 
     /tmp/cclKPlFC.s:223    .text:000000000000015c .L0 
     /tmp/cclKPlFC.s:227    .text:0000000000000160 .L0 
     /tmp/cclKPlFC.s:231    .text:0000000000000160 .L0 
     /tmp/cclKPlFC.s:239    .text:000000000000016c .L0 
     /tmp/cclKPlFC.s:247    .text:0000000000000184 .L0 
     /tmp/cclKPlFC.s:272    .text:0000000000000184 _ZN3TCB5yieldEv
     /tmp/cclKPlFC.s:275    .text:0000000000000184 .L0 
     /tmp/cclKPlFC.s:276    .text:0000000000000184 .L0 
     /tmp/cclKPlFC.s:277    .text:0000000000000188 .L0 
     /tmp/cclKPlFC.s:279    .text:000000000000018c .L0 
     /tmp/cclKPlFC.s:281    .text:0000000000000190 .L0 
     /tmp/cclKPlFC.s:283    .text:0000000000000190 .L0 
         src/tcb.cpp:11     .text:0000000000000190 .L0 
     /tmp/cclKPlFC.s:290    .text:0000000000000194 .L0 
     /tmp/cclKPlFC.s:291    .text:0000000000000198 .L0 
     /tmp/cclKPlFC.s:292    .text:0000000000000198 .L0 
     /tmp/cclKPlFC.s:294    .text:000000000000019c .L0 
     /tmp/cclKPlFC.s:296    .text:00000000000001a0 .L0 
     /tmp/cclKPlFC.s:305    .text:00000000000001a0 .L0 
     /tmp/cclKPlFC.s:306    .text:00000000000001a0 .L0 
     /tmp/cclKPlFC.s:307    .text:00000000000001a4 .L0 
     /tmp/cclKPlFC.s:311    .text:00000000000001b0 .L0 
     /tmp/cclKPlFC.s:312    .text:00000000000001b0 .L0 
     /tmp/cclKPlFC.s:313    .text:00000000000001b0 .L0 
     /tmp/cclKPlFC.s:315    .text:00000000000001b4 .L0 
     /tmp/cclKPlFC.s:317    .text:00000000000001b4 .L0 
     /tmp/cclKPlFC.s:318    .text:00000000000001b4 .L0 
     /tmp/cclKPlFC.s:321    .text:00000000000001bc .L0 
     /tmp/cclKPlFC.s:322    .text:00000000000001bc .L0 
     /tmp/cclKPlFC.s:326    .text:00000000000001cc .L0 
     /tmp/cclKPlFC.s:329    .text:00000000000001d0 .L0 
     /tmp/cclKPlFC.s:330    .text:00000000000001d0 .L0 
     /tmp/cclKPlFC.s:335    .text:00000000000001d4 .L0 
     /tmp/cclKPlFC.s:336    .text:00000000000001d4 .L0 
     /tmp/cclKPlFC.s:342    .text:00000000000001dc .L0 
     /tmp/cclKPlFC.s:343    .text:00000000000001dc .L0 
     /tmp/cclKPlFC.s:346    .text:00000000000001e4 .L0 
     /tmp/cclKPlFC.s:347    .text:00000000000001e8 .L0 
     /tmp/cclKPlFC.s:349    .text:00000000000001ec .L0 
     /tmp/cclKPlFC.s:350    .text:00000000000001ec .L0 
     /tmp/cclKPlFC.s:352    .text:00000000000001f0 .L0 
     /tmp/cclKPlFC.s:354    .text:00000000000001f4 .L0 
     /tmp/cclKPlFC.s:356    .text:00000000000001f8 .L0 
     /tmp/cclKPlFC.s:362    .text:00000000000001f8 _ZN3TCB8dispatchEv
     /tmp/cclKPlFC.s:365    .text:00000000000001f8 .L0 
     /tmp/cclKPlFC.s:366    .text:00000000000001f8 .L0 
     /tmp/cclKPlFC.s:367    .text:00000000000001fc .L0 
     /tmp/cclKPlFC.s:371    .text:0000000000000208 .L0 
     /tmp/cclKPlFC.s:372    .text:0000000000000208 .L0 
     /tmp/cclKPlFC.s:373    .text:0000000000000208 .L0 
     /tmp/cclKPlFC.s:375    .text:000000000000020c .L0 
     /tmp/cclKPlFC.s:377    .text:000000000000020c .L0 
GAS LISTING /tmp/cclKPlFC.s 			page 17


     /tmp/cclKPlFC.s:378    .text:000000000000020c .L0 
     /tmp/cclKPlFC.s:383    .text:0000000000000214 .L0 
     /tmp/cclKPlFC.s:384    .text:0000000000000214 .L0 
     /tmp/cclKPlFC.s:385    .text:0000000000000214 .L0 
     /tmp/cclKPlFC.s:390    .text:0000000000000218 .L0 
     /tmp/cclKPlFC.s:393    .text:000000000000021c .L0 
     /tmp/cclKPlFC.s:394    .text:000000000000021c .L0 
     /tmp/cclKPlFC.s:397    .text:0000000000000224 .L0 
     /tmp/cclKPlFC.s:399    .text:000000000000022c .L0 
     /tmp/cclKPlFC.s:400    .text:000000000000022c .L0 
     /tmp/cclKPlFC.s:405    .text:000000000000023c .L0 
     /tmp/cclKPlFC.s:406    .text:0000000000000240 .L0 
     /tmp/cclKPlFC.s:407    .text:0000000000000240 .L0 
     /tmp/cclKPlFC.s:409    .text:0000000000000244 .L0 
     /tmp/cclKPlFC.s:410    .text:0000000000000244 .L0 
     /tmp/cclKPlFC.s:412    .text:0000000000000248 .L0 
     /tmp/cclKPlFC.s:415    .text:000000000000024c .L0 
     /tmp/cclKPlFC.s:419    .text:0000000000000250 .L0 
     /tmp/cclKPlFC.s:421    .text:0000000000000250 .L0 
     /tmp/cclKPlFC.s:422    .text:0000000000000250 .L0 
     /tmp/cclKPlFC.s:426    .text:0000000000000260 .L0 
     /tmp/cclKPlFC.s:432    .text:0000000000000260 _ZN3TCB13dispatchSleepEv
     /tmp/cclKPlFC.s:435    .text:0000000000000260 .L0 
     /tmp/cclKPlFC.s:436    .text:0000000000000260 .L0 
     /tmp/cclKPlFC.s:437    .text:0000000000000264 .L0 
     /tmp/cclKPlFC.s:442    .text:0000000000000274 .L0 
     /tmp/cclKPlFC.s:443    .text:0000000000000274 .L0 
     /tmp/cclKPlFC.s:444    .text:0000000000000274 .L0 
     /tmp/cclKPlFC.s:445    .text:0000000000000274 .L0 
     /tmp/cclKPlFC.s:447    .text:0000000000000278 .L0 
     /tmp/cclKPlFC.s:449    .text:0000000000000278 .L0 
     /tmp/cclKPlFC.s:450    .text:0000000000000278 .L0 
     /tmp/cclKPlFC.s:454    .text:0000000000000284 .L0 
     /tmp/cclKPlFC.s:455    .text:0000000000000284 .L0 
     /tmp/cclKPlFC.s:459    .text:0000000000000290 .L0 
     /tmp/cclKPlFC.s:460    .text:0000000000000290 .L0 
     /tmp/cclKPlFC.s:463    .text:0000000000000298 .L0 
     /tmp/cclKPlFC.s:465    .text:000000000000029c .L0 
     /tmp/cclKPlFC.s:466    .text:000000000000029c .L0 
     /tmp/cclKPlFC.s:471    .text:00000000000002ac .L0 
     /tmp/cclKPlFC.s:472    .text:00000000000002b0 .L0 
     /tmp/cclKPlFC.s:474    .text:00000000000002b4 .L0 
     /tmp/cclKPlFC.s:475    .text:00000000000002b4 .L0 
     /tmp/cclKPlFC.s:477    .text:00000000000002b8 .L0 
     /tmp/cclKPlFC.s:480    .text:00000000000002bc .L0 
     /tmp/cclKPlFC.s:482    .text:00000000000002c0 .L0 
     /tmp/cclKPlFC.s:484    .text:00000000000002c4 .L0 
     /tmp/cclKPlFC.s:490    .text:00000000000002c4 _ZN3TCB11thread_exitEv
     /tmp/cclKPlFC.s:493    .text:00000000000002c4 .L0 
     /tmp/cclKPlFC.s:494    .text:00000000000002c4 .L0 
     /tmp/cclKPlFC.s:495    .text:00000000000002c8 .L0 
     /tmp/cclKPlFC.s:498    .text:00000000000002d0 .L0 
     /tmp/cclKPlFC.s:499    .text:00000000000002d0 .L0 
     /tmp/cclKPlFC.s:501    .text:00000000000002d4 .L0 
     /tmp/cclKPlFC.s:506    .text:00000000000002d4 .L0 
     /tmp/cclKPlFC.s:507    .text:00000000000002d4 .L0 
     /tmp/cclKPlFC.s:508    .text:00000000000002d4 .L0 
GAS LISTING /tmp/cclKPlFC.s 			page 18


     /tmp/cclKPlFC.s:515    .text:00000000000002e4 .L0 
     /tmp/cclKPlFC.s:516    .text:00000000000002e4 .L0 
     /tmp/cclKPlFC.s:519    .text:00000000000002ec .L0 
     /tmp/cclKPlFC.s:520    .text:00000000000002f0 .L0 
     /tmp/cclKPlFC.s:522    .text:00000000000002f4 .L0 
     /tmp/cclKPlFC.s:523    .text:00000000000002f4 .L0 
     /tmp/cclKPlFC.s:525    .text:00000000000002f8 .L0 
     /tmp/cclKPlFC.s:527    .text:00000000000002fc .L0 
     /tmp/cclKPlFC.s:533    .text:00000000000002fc _ZN3TCB10time_sleepEm
     /tmp/cclKPlFC.s:536    .text:00000000000002fc .L0 
     /tmp/cclKPlFC.s:538    .text:00000000000002fc .L0 
     /tmp/cclKPlFC.s:539    .text:0000000000000300 .L0 
     /tmp/cclKPlFC.s:542    .text:0000000000000308 .L0 
     /tmp/cclKPlFC.s:543    .text:0000000000000308 .L0 
     /tmp/cclKPlFC.s:545    .text:000000000000030c .L0 
     /tmp/cclKPlFC.s:547    .text:000000000000030c .L0 
     /tmp/cclKPlFC.s:548    .text:000000000000030c .L0 
     /tmp/cclKPlFC.s:550    .text:0000000000000314 .L0 
     /tmp/cclKPlFC.s:552    .text:0000000000000318 .L0 
     /tmp/cclKPlFC.s:553    .text:0000000000000318 .L0 
     /tmp/cclKPlFC.s:556    .text:0000000000000320 .L0 
     /tmp/cclKPlFC.s:557    .text:0000000000000320 .L0 
     /tmp/cclKPlFC.s:559    .text:0000000000000328 .L0 
     /tmp/cclKPlFC.s:561    .text:000000000000032c .L0 
     /tmp/cclKPlFC.s:562    .text:000000000000032c .L0 
     /tmp/cclKPlFC.s:564    .text:0000000000000330 .L0 
     /tmp/cclKPlFC.s:566    .text:0000000000000334 .L0 
     /tmp/cclKPlFC.s:580    .bss:0000000000000008 _ZN3TCB16timeSLiceCounterE
     /tmp/cclKPlFC.s:576    .bss:0000000000000000 _ZN3TCB7runningE
     /tmp/cclKPlFC.s:573    .bss:0000000000000000 .LANCHOR0
     /tmp/cclKPlFC.s:587    .text:0000000000000334 .L0 
     /tmp/cclKPlFC.s:59     .text:000000000000004c .L0 
     /tmp/cclKPlFC.s:192    .text:0000000000000118 .L0 
     /tmp/cclKPlFC.s:322    .text:00000000000001bc .L0 
     /tmp/cclKPlFC.s:378    .text:000000000000020c .L0 
     /tmp/cclKPlFC.s:397    .text:0000000000000224 .L0 
     /tmp/cclKPlFC.s:450    .text:0000000000000278 .L0 
     /tmp/cclKPlFC.s:508    .text:00000000000002d4 .L0 
     /tmp/cclKPlFC.s:548    .text:000000000000030c .L0 
     /tmp/cclKPlFC.s:53     .text:0000000000000044 .L6
     /tmp/cclKPlFC.s:56     .text:0000000000000048 .L2
     /tmp/cclKPlFC.s:82     .text:000000000000008c .L7
     /tmp/cclKPlFC.s:100    .text:00000000000000b0 .L1
     /tmp/cclKPlFC.s:66     .text:0000000000000064 .L3
     /tmp/cclKPlFC.s:186    .text:0000000000000110 .L14
     /tmp/cclKPlFC.s:189    .text:0000000000000114 .L11
     /tmp/cclKPlFC.s:226    .text:0000000000000160 .L15
     /tmp/cclKPlFC.s:199    .text:0000000000000130 .L12
     /tmp/cclKPlFC.s:418    .text:0000000000000250 .L26
     /tmp/cclKPlFC.s:391    .text:000000000000021c .L24
     /tmp/cclKPlFC.s:34     .text:0000000000000020 .LEHB0
     /tmp/cclKPlFC.s:10     .text:0000000000000000 .LFB37
     /tmp/cclKPlFC.s:37     .text:0000000000000028 .LEHE0
     /tmp/cclKPlFC.s:49     .text:0000000000000038 .LEHB1
     /tmp/cclKPlFC.s:80     .text:0000000000000088 .LEHE1
     /tmp/cclKPlFC.s:86     .text:0000000000000094 .L8
     /tmp/cclKPlFC.s:96     .text:00000000000000a8 .LEHB2
GAS LISTING /tmp/cclKPlFC.s 			page 19


     /tmp/cclKPlFC.s:99     .text:00000000000000b0 .LEHE2
     /tmp/cclKPlFC.s:167    .text:00000000000000ec .LEHB3
     /tmp/cclKPlFC.s:144    .text:00000000000000cc .LFB38
     /tmp/cclKPlFC.s:170    .text:00000000000000f4 .LEHE3
     /tmp/cclKPlFC.s:181    .text:0000000000000104 .LEHB4
     /tmp/cclKPlFC.s:184    .text:000000000000010c .LEHE4
     /tmp/cclKPlFC.s:233    .text:0000000000000168 .L16
     /tmp/cclKPlFC.s:243    .text:000000000000017c .LEHB5
     /tmp/cclKPlFC.s:246    .text:0000000000000184 .LEHE5
     /tmp/cclKPlFC.s:1785   .debug_abbrev:0000000000000000 .Ldebug_abbrev0
     /tmp/cclKPlFC.s:3145   .debug_str:000000000000063e .LASF124
     /tmp/cclKPlFC.s:3051   .debug_str:00000000000003a0 .LASF125
     /tmp/cclKPlFC.s:3129   .debug_str:00000000000005ab .LASF126
     /tmp/cclKPlFC.s:5      .text:0000000000000000 .Ltext0
     /tmp/cclKPlFC.s:583    .text:0000000000000334 .Letext0
     /tmp/cclKPlFC.s:2927   .debug_line:0000000000000000 .Ldebug_line0
     /tmp/cclKPlFC.s:3069   .debug_str:0000000000000405 .LASF0
     /tmp/cclKPlFC.s:3085   .debug_str:000000000000044f .LASF1
     /tmp/cclKPlFC.s:3055   .debug_str:00000000000003b3 .LASF2
     /tmp/cclKPlFC.s:3027   .debug_str:0000000000000303 .LASF4
     /tmp/cclKPlFC.s:3121   .debug_str:0000000000000564 .LASF3
     /tmp/cclKPlFC.s:2953   .debug_str:000000000000009b .LASF5
     /tmp/cclKPlFC.s:2981   .debug_str:0000000000000199 .LASF6
     /tmp/cclKPlFC.s:3087   .debug_str:0000000000000462 .LASF7
     /tmp/cclKPlFC.s:3067   .debug_str:00000000000003f2 .LASF8
     /tmp/cclKPlFC.s:3153   .debug_str:000000000000073a .LASF9
     /tmp/cclKPlFC.s:3011   .debug_str:000000000000025f .LASF10
     /tmp/cclKPlFC.s:3101   .debug_str:00000000000004dc .LASF11
     /tmp/cclKPlFC.s:3147   .debug_str:0000000000000702 .LASF12
     /tmp/cclKPlFC.s:2955   .debug_str:00000000000000a2 .LASF13
     /tmp/cclKPlFC.s:2933   .debug_str:0000000000000022 .LASF14
     /tmp/cclKPlFC.s:2965   .debug_str:00000000000000fe .LASF15
     /tmp/cclKPlFC.s:3113   .debug_str:0000000000000523 .LASF16
     /tmp/cclKPlFC.s:2975   .debug_str:000000000000015e .LASF17
     /tmp/cclKPlFC.s:3097   .debug_str:00000000000004c9 .LASF26
     /tmp/cclKPlFC.s:2999   .debug_str:0000000000000205 .LASF18
     /tmp/cclKPlFC.s:3093   .debug_str:00000000000004a2 .LASF19
     /tmp/cclKPlFC.s:3083   .debug_str:0000000000000448 .LASF20
     /tmp/cclKPlFC.s:3023   .debug_str:00000000000002c7 .LASF127
     /tmp/cclKPlFC.s:2961   .debug_str:00000000000000dc .LASF61
     /tmp/cclKPlFC.s:3157   .debug_str:0000000000000767 .LASF21
     /tmp/cclKPlFC.s:3139   .debug_str:000000000000060c .LASF24
     /tmp/cclKPlFC.s:3099   .debug_str:00000000000004d3 .LASF22
     /tmp/cclKPlFC.s:3155   .debug_str:000000000000074a .LASF75
     /tmp/cclKPlFC.s:3151   .debug_str:000000000000072c .LASF23
     /tmp/cclKPlFC.s:3125   .debug_str:000000000000057d .LASF25
     /tmp/cclKPlFC.s:3065   .debug_str:00000000000003ed .LASF59
     /tmp/cclKPlFC.s:3045   .debug_str:0000000000000369 .LASF128
     /tmp/cclKPlFC.s:2939   .debug_str:0000000000000041 .LASF129
     /tmp/cclKPlFC.s:3109   .debug_str:0000000000000513 .LASF27
     /tmp/cclKPlFC.s:3031   .debug_str:0000000000000313 .LASF28
     /tmp/cclKPlFC.s:3075   .debug_str:0000000000000422 .LASF29
     /tmp/cclKPlFC.s:3035   .debug_str:0000000000000323 .LASF30
     /tmp/cclKPlFC.s:3079   .debug_str:0000000000000438 .LASF31
     /tmp/cclKPlFC.s:3029   .debug_str:000000000000030a .LASF32
     /tmp/cclKPlFC.s:3103   .debug_str:00000000000004eb .LASF33
     /tmp/cclKPlFC.s:3131   .debug_str:00000000000005c6 .LASF34
GAS LISTING /tmp/cclKPlFC.s 			page 20


     /tmp/cclKPlFC.s:3039   .debug_str:0000000000000338 .LASF35
     /tmp/cclKPlFC.s:3019   .debug_str:00000000000002ad .LASF36
     /tmp/cclKPlFC.s:3037   .debug_str:000000000000032b .LASF37
     /tmp/cclKPlFC.s:3159   .debug_str:0000000000000770 .LASF39
     /tmp/cclKPlFC.s:3013   .debug_str:000000000000026d .LASF38
     /tmp/cclKPlFC.s:3047   .debug_str:0000000000000373 .LASF40
     /tmp/cclKPlFC.s:3089   .debug_str:0000000000000475 .LASF43
     /tmp/cclKPlFC.s:3009   .debug_str:0000000000000248 .LASF45
     /tmp/cclKPlFC.s:3057   .debug_str:00000000000003c1 .LASF41
     /tmp/cclKPlFC.s:3187   .debug_str:0000000000000866 .LASF42
     /tmp/cclKPlFC.s:3049   .debug_str:0000000000000393 .LASF44
     /tmp/cclKPlFC.s:2951   .debug_str:0000000000000082 .LASF46
     /tmp/cclKPlFC.s:2941   .debug_str:0000000000000049 .LASF49
     /tmp/cclKPlFC.s:2973   .debug_str:0000000000000147 .LASF51
     /tmp/cclKPlFC.s:3115   .debug_str:0000000000000539 .LASF47
     /tmp/cclKPlFC.s:2959   .debug_str:00000000000000c6 .LASF48
     /tmp/cclKPlFC.s:3073   .debug_str:0000000000000419 .LASF50
     /tmp/cclKPlFC.s:2995   .debug_str:00000000000001ed .LASF52
     /tmp/cclKPlFC.s:3173   .debug_str:00000000000007f0 .LASF53
     /tmp/cclKPlFC.s:3185   .debug_str:000000000000084d .LASF54
     /tmp/cclKPlFC.s:3059   .debug_str:00000000000003cd .LASF55
     /tmp/cclKPlFC.s:3063   .debug_str:00000000000003dd .LASF56
     /tmp/cclKPlFC.s:2983   .debug_str:00000000000001a0 .LASF57
     /tmp/cclKPlFC.s:3107   .debug_str:0000000000000507 .LASF58
     /tmp/cclKPlFC.s:2989   .debug_str:00000000000001c9 .LASF60
     /tmp/cclKPlFC.s:3005   .debug_str:0000000000000231 .LASF62
     /tmp/cclKPlFC.s:2947   .debug_str:0000000000000062 .LASF63
     /tmp/cclKPlFC.s:3041   .debug_str:0000000000000343 .LASF107
     /tmp/cclKPlFC.s:3017   .debug_str:0000000000000294 .LASF109
     /tmp/cclKPlFC.s:3165   .debug_str:00000000000007a7 .LASF130
     /tmp/cclKPlFC.s:3025   .debug_str:00000000000002db .LASF131
     /tmp/cclKPlFC.s:2997   .debug_str:0000000000000200 .LASF64
     /tmp/cclKPlFC.s:3081   .debug_str:0000000000000442 .LASF65
     /tmp/cclKPlFC.s:2949   .debug_str:0000000000000074 .LASF66
     /tmp/cclKPlFC.s:2987   .debug_str:00000000000001ae .LASF67
     /tmp/cclKPlFC.s:3135   .debug_str:00000000000005ec .LASF68
     /tmp/cclKPlFC.s:2931   .debug_str:0000000000000008 .LASF69
     /tmp/cclKPlFC.s:3111   .debug_str:0000000000000518 .LASF70
     /tmp/cclKPlFC.s:3179   .debug_str:0000000000000816 .LASF71
     /tmp/cclKPlFC.s:2935   .debug_str:0000000000000032 .LASF72
     /tmp/cclKPlFC.s:3133   .debug_str:00000000000005d7 .LASF73
     /tmp/cclKPlFC.s:2985   .debug_str:00000000000001a5 .LASF74
     /tmp/cclKPlFC.s:2969   .debug_str:000000000000011a .LASF76
     /tmp/cclKPlFC.s:3123   .debug_str:0000000000000576 .LASF77
     /tmp/cclKPlFC.s:3105   .debug_str:00000000000004f4 .LASF78
     /tmp/cclKPlFC.s:3143   .debug_str:0000000000000637 .LASF79
     /tmp/cclKPlFC.s:3137   .debug_str:00000000000005f9 .LASF80
     /tmp/cclKPlFC.s:3003   .debug_str:0000000000000229 .LASF81
     /tmp/cclKPlFC.s:2977   .debug_str:0000000000000174 .LASF82
     /tmp/cclKPlFC.s:2929   .debug_str:0000000000000000 .LASF83
     /tmp/cclKPlFC.s:3181   .debug_str:000000000000082e .LASF84
     /tmp/cclKPlFC.s:2991   .debug_str:00000000000001d1 .LASF85
     /tmp/cclKPlFC.s:2957   .debug_str:00000000000000b2 .LASF86
     /tmp/cclKPlFC.s:3117   .debug_str:0000000000000544 .LASF87
     /tmp/cclKPlFC.s:2993   .debug_str:00000000000001d9 .LASF88
     /tmp/cclKPlFC.s:3071   .debug_str:0000000000000412 .LASF89
     /tmp/cclKPlFC.s:3175   .debug_str:00000000000007fe .LASF90
GAS LISTING /tmp/cclKPlFC.s 			page 21


     /tmp/cclKPlFC.s:2945   .debug_str:000000000000005b .LASF91
     /tmp/cclKPlFC.s:3001   .debug_str:0000000000000216 .LASF92
     /tmp/cclKPlFC.s:3007   .debug_str:0000000000000242 .LASF93
     /tmp/cclKPlFC.s:3141   .debug_str:0000000000000625 .LASF94
     /tmp/cclKPlFC.s:2943   .debug_str:0000000000000055 .LASF95
     /tmp/cclKPlFC.s:3191   .debug_str:000000000000088e .LASF96
     /tmp/cclKPlFC.s:3183   .debug_str:0000000000000842 .LASF97
     /tmp/cclKPlFC.s:3119   .debug_str:000000000000054c .LASF98
     /tmp/cclKPlFC.s:3033   .debug_str:0000000000000318 .LASF99
     /tmp/cclKPlFC.s:3043   .debug_str:0000000000000351 .LASF100
     /tmp/cclKPlFC.s:2963   .debug_str:00000000000000f4 .LASF101
     /tmp/cclKPlFC.s:3095   .debug_str:00000000000004b3 .LASF102
     /tmp/cclKPlFC.s:3061   .debug_str:00000000000003d3 .LASF103
     /tmp/cclKPlFC.s:3015   .debug_str:000000000000027e .LASF104
     /tmp/cclKPlFC.s:3127   .debug_str:000000000000059c .LASF105
     /tmp/cclKPlFC.s:3169   .debug_str:00000000000007c2 .LASF106
     /tmp/cclKPlFC.s:3161   .debug_str:000000000000078c .LASF108
     /tmp/cclKPlFC.s:3091   .debug_str:0000000000000480 .LASF110
     /tmp/cclKPlFC.s:3189   .debug_str:000000000000087d .LASF111
     /tmp/cclKPlFC.s:3149   .debug_str:0000000000000711 .LASF112
     /tmp/cclKPlFC.s:534    .text:00000000000002fc .LFB44
     /tmp/cclKPlFC.s:567    .text:0000000000000334 .LFE44
     /tmp/cclKPlFC.s:2687   .debug_loc:0000000000000000 .LLST15
     /tmp/cclKPlFC.s:554    .text:0000000000000320 .LVL43
     /tmp/cclKPlFC.s:491    .text:00000000000002c4 .LFB43
     /tmp/cclKPlFC.s:528    .text:00000000000002fc .LFE43
     /tmp/cclKPlFC.s:504    .text:00000000000002d4 .LBB24
     /tmp/cclKPlFC.s:513    .text:00000000000002e4 .LBE24
     /tmp/cclKPlFC.s:2701   .debug_loc:0000000000000039 .LLST13
     /tmp/cclKPlFC.s:2709   .debug_loc:000000000000005d .LLST14
     /tmp/cclKPlFC.s:517    .text:00000000000002ec .LVL41
     /tmp/cclKPlFC.s:303    .text:00000000000001a0 .LFB42
     /tmp/cclKPlFC.s:357    .text:00000000000001f8 .LFE42
     /tmp/cclKPlFC.s:332    .text:00000000000001d4 .LBB20
     /tmp/cclKPlFC.s:340    .text:00000000000001dc .LBE20
     /tmp/cclKPlFC.s:2717   .debug_loc:0000000000000088 .LLST8
     /tmp/cclKPlFC.s:2725   .debug_loc:00000000000000ac .LLST9
     /tmp/cclKPlFC.s:319    .text:00000000000001bc .LVL22
     /tmp/cclKPlFC.s:344    .text:00000000000001e4 .LVL26
     /tmp/cclKPlFC.s:433    .text:0000000000000260 .LFB41
     /tmp/cclKPlFC.s:485    .text:00000000000002c4 .LFE41
     /tmp/cclKPlFC.s:2732   .debug_loc:00000000000000cf .LLST12
     /tmp/cclKPlFC.s:457    .text:0000000000000290 .LVL35
     /tmp/cclKPlFC.s:461    .text:0000000000000298 .LVL36
     /tmp/cclKPlFC.s:469    .text:00000000000002ac .LVL37
     /tmp/cclKPlFC.s:363    .text:00000000000001f8 .LFB40
     /tmp/cclKPlFC.s:427    .text:0000000000000260 .LFE40
     /tmp/cclKPlFC.s:2739   .debug_loc:00000000000000f2 .LLST10
     /tmp/cclKPlFC.s:381    .text:0000000000000214 .LBB22
     /tmp/cclKPlFC.s:388    .text:0000000000000218 .LBE22
     /tmp/cclKPlFC.s:2750   .debug_loc:0000000000000128 .LLST11
     /tmp/cclKPlFC.s:395    .text:0000000000000224 .LVL29
     /tmp/cclKPlFC.s:403    .text:000000000000023c .LVL30
     /tmp/cclKPlFC.s:424    .text:000000000000025c .LVL33
     /tmp/cclKPlFC.s:273    .text:0000000000000184 .LFB39
     /tmp/cclKPlFC.s:297    .text:00000000000001a0 .LFE39
     /tmp/cclKPlFC.s:248    .text:0000000000000184 .LFE38
GAS LISTING /tmp/cclKPlFC.s 			page 22


     /tmp/cclKPlFC.s:2757   .debug_loc:000000000000014b .LLST3
     /tmp/cclKPlFC.s:173    .text:00000000000000f8 .LBB16
     /tmp/cclKPlFC.s:2919   .debug_ranges:0000000000000000 .Ldebug_ranges0
     /tmp/cclKPlFC.s:2786   .debug_loc:00000000000001c0 .LLST4
     /tmp/cclKPlFC.s:2799   .debug_loc:00000000000001f8 .LLST5
     /tmp/cclKPlFC.s:2812   .debug_loc:0000000000000230 .LLST6
     /tmp/cclKPlFC.s:2830   .debug_loc:000000000000027c .LLST7
     /tmp/cclKPlFC.s:183    .text:000000000000010c .LVL15
     /tmp/cclKPlFC.s:169    .text:00000000000000f4 .LVL13
     /tmp/cclKPlFC.s:241    .text:0000000000000178 .LVL20
     /tmp/cclKPlFC.s:245    .text:0000000000000184 .LVL21
     /tmp/cclKPlFC.s:118    .text:00000000000000cc .LFE37
     /tmp/cclKPlFC.s:2841   .debug_loc:00000000000002b2 .LLST0
     /tmp/cclKPlFC.s:40     .text:000000000000002c .LBB14
     /tmp/cclKPlFC.s:90     .text:0000000000000098 .LBE14
     /tmp/cclKPlFC.s:2870   .debug_loc:0000000000000327 .LLST1
     /tmp/cclKPlFC.s:2895   .debug_loc:0000000000000389 .LLST2
     /tmp/cclKPlFC.s:51     .text:0000000000000040 .LVL4
     /tmp/cclKPlFC.s:79     .text:0000000000000088 .LVL5
     /tmp/cclKPlFC.s:36     .text:0000000000000028 .LVL2
     /tmp/cclKPlFC.s:94     .text:00000000000000a4 .LVL7
     /tmp/cclKPlFC.s:98     .text:00000000000000b0 .LVL8
     /tmp/cclKPlFC.s:3177   .debug_str:0000000000000811 .LASF113
     /tmp/cclKPlFC.s:3171   .debug_str:00000000000007de .LASF114
     /tmp/cclKPlFC.s:2979   .debug_str:0000000000000188 .LASF115
     /tmp/cclKPlFC.s:3163   .debug_str:00000000000007a1 .LASF116
     /tmp/cclKPlFC.s:3077   .debug_str:0000000000000428 .LASF118
     /tmp/cclKPlFC.s:2937   .debug_str:000000000000003b .LASF117
     /tmp/cclKPlFC.s:3167   .debug_str:00000000000007b5 .LASF119
     /tmp/cclKPlFC.s:3053   .debug_str:00000000000003ac .LASF120
     /tmp/cclKPlFC.s:2967   .debug_str:000000000000010a .LASF121
     /tmp/cclKPlFC.s:3021   .debug_str:00000000000002b8 .LASF122
     /tmp/cclKPlFC.s:2971   .debug_str:000000000000012f .LASF123
     /tmp/cclKPlFC.s:537    .text:00000000000002fc .LVL42
     /tmp/cclKPlFC.s:503    .text:00000000000002d4 .LVL39
     /tmp/cclKPlFC.s:511    .text:00000000000002e4 .LVL40
     /tmp/cclKPlFC.s:331    .text:00000000000001d4 .LVL24
     /tmp/cclKPlFC.s:338    .text:00000000000001dc .LVL25
     /tmp/cclKPlFC.s:452    .text:0000000000000284 .LVL34
     /tmp/cclKPlFC.s:478    .text:00000000000002b8 .LVL38
     /tmp/cclKPlFC.s:379    .text:0000000000000214 .LVL27
     /tmp/cclKPlFC.s:413    .text:0000000000000248 .LVL31
     /tmp/cclKPlFC.s:417    .text:0000000000000250 .LVL32
     /tmp/cclKPlFC.s:386    .text:0000000000000218 .LVL28
     /tmp/cclKPlFC.s:149    .text:00000000000000cc .LVL11
     /tmp/cclKPlFC.s:166    .text:00000000000000ec .LVL12
     /tmp/cclKPlFC.s:221    .text:0000000000000158 .LVL17
     /tmp/cclKPlFC.s:225    .text:0000000000000160 .LVL18
     /tmp/cclKPlFC.s:235    .text:000000000000016c .LVL19
     /tmp/cclKPlFC.s:172    .text:00000000000000f8 .LVL14
     /tmp/cclKPlFC.s:206    .text:0000000000000144 .LVL16
     /tmp/cclKPlFC.s:16     .text:0000000000000000 .LVL0
     /tmp/cclKPlFC.s:33     .text:0000000000000020 .LVL1
     /tmp/cclKPlFC.s:88     .text:0000000000000098 .LVL6
     /tmp/cclKPlFC.s:113    .text:00000000000000c4 .LVL10
     /tmp/cclKPlFC.s:39     .text:000000000000002c .LVL3
     /tmp/cclKPlFC.s:110    .text:00000000000000c0 .LVL9
GAS LISTING /tmp/cclKPlFC.s 			page 23


     /tmp/cclKPlFC.s:588    .debug_info:0000000000000000 .Ldebug_info0
     /tmp/cclKPlFC.s:208    .text:0000000000000144 .LBE16
     /tmp/cclKPlFC.s:228    .text:0000000000000160 .LBB19
     /tmp/cclKPlFC.s:237    .text:000000000000016c .LBE19
     /tmp/cclKPlFC.s:121    .gcc_except_table:0000000000000000 .LLSDA37
     /tmp/cclKPlFC.s:250    .gcc_except_table:000000000000002b .LLSDA38

UNDEFINED SYMBOLS
_Znwm
_Znam
_ZN9Scheduler3putEP3TCB
_ZdlPv
_Unwind_Resume
__gxx_personality_v0
_ZN5Riscv10popSppSpieEv
_ZN9Scheduler3getEv
_ZN3TCB13contextSwitchEPNS_7ContextES1_
_ZN9Scheduler8putSleepEP3TCB
