GAS LISTING /tmp/cclKPlFC.s 			page 1


   1              		.file	"tcb.cpp"
   2              		.option pic
   3              		.option norelax
   4              		.text
   5              	.Ltext0:
   6              		.align	2
   7              		.globl	_ZN3TCB12createThreadEPFvvE
   9              	_ZN3TCB12createThreadEPFvvE:
  10              	.LFB37:
  11              		.file 1 "src/tcb.cpp"
   1:src/tcb.cpp   **** #include "../h/tcb.hpp"
   2:src/tcb.cpp   **** #include "../h/riscv.hpp"
   3:src/tcb.cpp   **** #include "../h/scheduler.hpp"
   4:src/tcb.cpp   **** 
   5:src/tcb.cpp   **** TCB *TCB::running = nullptr;
   6:src/tcb.cpp   **** uint64 TCB::timeSLiceCounter = 0;
   7:src/tcb.cpp   **** 
   8:src/tcb.cpp   **** TCB *TCB::createThread(Body body) { return new TCB(body, TIME_SLICE); }
  12              		.loc 1 8 35
  13              		.cfi_startproc
  14              		.cfi_personality 0x9b,DW.ref.__gxx_personality_v0
  15              		.cfi_lsda 0x1b,.LLSDA37
  16              	.LVL0:
  17 0000 130101FE 		addi	sp,sp,-32
  18              		.cfi_def_cfa_offset 32
  19 0004 233C1100 		sd	ra,24(sp)
  20 0008 23388100 		sd	s0,16(sp)
  21 000c 23349100 		sd	s1,8(sp)
  22 0010 23302101 		sd	s2,0(sp)
  23              		.cfi_offset 1, -8
  24              		.cfi_offset 8, -16
  25              		.cfi_offset 9, -24
  26              		.cfi_offset 18, -32
  27 0014 13040102 		addi	s0,sp,32
  28              		.cfi_def_cfa 8, 0
  29 0018 13090500 		mv	s2,a0
  30              		.loc 1 8 37
  31              		.loc 1 8 68 is_stmt 0
  32 001c 13058003 		li	a0,56
  33              	.LVL1:
  34              	.LEHB0:
  35 0020 97000000 		call	_Znwm@plt
  35      E7800000 
  36              	.LVL2:
  37              	.LEHE0:
  38 0028 93040500 		mv	s1,a0
  39              	.LVL3:
  40              	.LBB14:
  41              	.LBB15:
  42              		.file 2 "src/../h/tcb.hpp"
   1:src/../h/tcb.hpp **** #ifndef cbb_hpp
   2:src/../h/tcb.hpp **** #define cbb_hpp
   3:src/../h/tcb.hpp **** 
   4:src/../h/tcb.hpp **** #include "../lib/hw.h"
   5:src/../h/tcb.hpp **** #include "scheduler.hpp"
   6:src/../h/tcb.hpp **** // Vezbe 7
   7:src/../h/tcb.hpp **** 
GAS LISTING /tmp/cclKPlFC.s 			page 2


   8:src/../h/tcb.hpp **** class TCB {
   9:src/../h/tcb.hpp **** private:
  10:src/../h/tcb.hpp ****     using Body = void (*)();
  11:src/../h/tcb.hpp ****     struct Context {
  12:src/../h/tcb.hpp ****         uint64 ra;
  13:src/../h/tcb.hpp ****         uint64 sp;
  14:src/../h/tcb.hpp ****     };
  15:src/../h/tcb.hpp ****     Body body;
  16:src/../h/tcb.hpp ****     uint64 *stack;
  17:src/../h/tcb.hpp ****     Context context;
  18:src/../h/tcb.hpp ****     uint64 timeSlice;
  19:src/../h/tcb.hpp ****     bool finished;
  20:src/../h/tcb.hpp ****     uint64 sleeping = 0;
  21:src/../h/tcb.hpp **** 
  22:src/../h/tcb.hpp ****     static uint64 timeSLiceCounter;
  23:src/../h/tcb.hpp ****     static uint64 constexpr STACK_SIZE = 1024;
  24:src/../h/tcb.hpp ****     static uint64 constexpr TIME_SLICE = 2;
  25:src/../h/tcb.hpp **** public:
  26:src/../h/tcb.hpp ****     //using Body = void (*)();
  27:src/../h/tcb.hpp **** 
  28:src/../h/tcb.hpp ****     static TCB *createThread(Body body);
  29:src/../h/tcb.hpp ****     static TCB *createIdleThread(Body body);
  30:src/../h/tcb.hpp **** 
  31:src/../h/tcb.hpp ****     bool isFinished() const { return finished; }
  32:src/../h/tcb.hpp ****     void setFinished(bool f) { TCB::finished = f; }
  33:src/../h/tcb.hpp ****     uint64 getTimeSlice() const { return timeSlice; }
  34:src/../h/tcb.hpp ****     static void thread_exit();
  35:src/../h/tcb.hpp ****     static int time_sleep (time_t);
  36:src/../h/tcb.hpp ****     static void dispatch();
  37:src/../h/tcb.hpp ****     static void dispatchSleep();
  38:src/../h/tcb.hpp ****     static void yield();
  39:src/../h/tcb.hpp **** 
  40:src/../h/tcb.hpp ****     ~TCB() { delete[] stack; }
  41:src/../h/tcb.hpp **** 
  42:src/../h/tcb.hpp ****     static TCB *running;
  43:src/../h/tcb.hpp **** 
  44:src/../h/tcb.hpp **** private:
  45:src/../h/tcb.hpp ****     TCB(Body body, uint64 timeSlice)
  46:src/../h/tcb.hpp ****             : body(body), stack(body != nullptr ? new uint64[STACK_SIZE] : nullptr),
  47:src/../h/tcb.hpp ****               context({(uint64) &threadWrapper,
  48:src/../h/tcb.hpp ****                        stack != nullptr ? (uint64) &stack[STACK_SIZE] : 0}),
  49:src/../h/tcb.hpp ****               timeSlice(timeSlice),
  50:src/../h/tcb.hpp ****               finished(false) {
  43              		.loc 2 50 29
  44 002c 23302501 		sd	s2,0(a0)
  46:src/../h/tcb.hpp ****               context({(uint64) &threadWrapper,
  45              		.loc 2 46 49
  46 0030 630A0900 		beqz	s2,.L6
  46:src/../h/tcb.hpp ****               context({(uint64) &threadWrapper,
  47              		.loc 2 46 72
  48 0034 37250000 		li	a0,8192
  49              	.LEHB1:
  50 0038 97000000 		call	_Znam@plt
  50      E7800000 
  51              	.LVL4:
  52 0040 6F008000 		j	.L2
  53              	.L6:
GAS LISTING /tmp/cclKPlFC.s 			page 3


  46:src/../h/tcb.hpp ****               context({(uint64) &threadWrapper,
  54              		.loc 2 46 49
  55 0044 13050000 		li	a0,0
  56              	.L2:
  57              		.loc 2 50 29
  58 0048 23B4A400 		sd	a0,8(s1)
  59 004c 97070000 		lla	a5,_ZN3TCB13threadWrapperEv
  59      93870700 
  60 0054 23B8F400 		sd	a5,16(s1)
  48:src/../h/tcb.hpp ****               timeSlice(timeSlice),
  61              		.loc 2 48 41
  62 0058 630A0502 		beqz	a0,.L7
  48:src/../h/tcb.hpp ****               timeSlice(timeSlice),
  63              		.loc 2 48 52
  64 005c B7270000 		li	a5,8192
  65 0060 B307F500 		add	a5,a0,a5
  66              	.L3:
  67              		.loc 2 50 29
  68 0064 23BCF400 		sd	a5,24(s1)
  69 0068 93072000 		li	a5,2
  70 006c 23B0F402 		sd	a5,32(s1)
  71 0070 23840402 		sb	zero,40(s1)
  72 0074 23B80402 		sd	zero,48(s1)
  51:src/../h/tcb.hpp ****         if (body != nullptr) {
  73              		.loc 2 51 9 is_stmt 1
  74 0078 630C0902 		beqz	s2,.L1
  52:src/../h/tcb.hpp ****             Scheduler::put(this);
  75              		.loc 2 52 13
  76              		.loc 2 52 27 is_stmt 0
  77 007c 13850400 		mv	a0,s1
  78 0080 97000000 		call	_ZN9Scheduler3putEP3TCB@plt
  78      E7800000 
  79              	.LVL5:
  80              	.LEHE1:
  81 0088 6F008002 		j	.L1
  82              	.L7:
  48:src/../h/tcb.hpp ****               timeSlice(timeSlice),
  83              		.loc 2 48 41
  84 008c 93070000 		li	a5,0
  85 0090 6FF05FFD 		j	.L3
  86              	.L8:
  87 0094 13090500 		mv	s2,a0
  88              	.LVL6:
  89              	.LBE15:
  90              	.LBE14:
  91              		.loc 1 8 68
  92 0098 13850400 		mv	a0,s1
  93 009c 97000000 		call	_ZdlPv@plt
  93      E7800000 
  94              	.LVL7:
  95 00a4 13050900 		mv	a0,s2
  96              	.LEHB2:
  97 00a8 97000000 		call	_Unwind_Resume@plt
  97      E7800000 
  98              	.LVL8:
  99              	.LEHE2:
 100              	.L1:
GAS LISTING /tmp/cclKPlFC.s 			page 4


 101              		.loc 1 8 71
 102 00b0 13850400 		mv	a0,s1
 103 00b4 83308101 		ld	ra,24(sp)
 104              		.cfi_restore 1
 105 00b8 03340101 		ld	s0,16(sp)
 106              		.cfi_restore 8
 107              		.cfi_def_cfa 2, 32
 108 00bc 83348100 		ld	s1,8(sp)
 109              		.cfi_restore 9
 110              	.LVL9:
 111 00c0 03390100 		ld	s2,0(sp)
 112              		.cfi_restore 18
 113              	.LVL10:
 114 00c4 13010102 		addi	sp,sp,32
 115              		.cfi_def_cfa_offset 0
 116 00c8 67800000 		jr	ra
 117              		.cfi_endproc
 118              	.LFE37:
 119              		.globl	__gxx_personality_v0
 120              		.section	.gcc_except_table,"a",@progbits
 121              	.LLSDA37:
 122 0000 FF       		.byte	0xff
 123 0001 FF       		.byte	0xff
 124 0002 03       		.byte	0x3
 125 0003 27       		.byte	0x27
 126 0004 00000000 		.4byte	.LEHB0-.LFB37
 127 0008 00000000 		.4byte	.LEHE0-.LEHB0
 128 000c 00000000 		.4byte	0
 129 0010 00       		.byte	0
 130 0011 00000000 		.4byte	.LEHB1-.LFB37
 131 0015 00000000 		.4byte	.LEHE1-.LEHB1
 132 0019 00000000 		.4byte	.L8-.LFB37
 133 001d 00       		.byte	0
 134 001e 00000000 		.4byte	.LEHB2-.LFB37
 135 0022 00000000 		.4byte	.LEHE2-.LEHB2
 136 0026 00000000 		.4byte	0
 137 002a 00       		.byte	0
 138              		.text
 140              		.align	2
 141              		.globl	_ZN3TCB16createIdleThreadEPFvvE
 143              	_ZN3TCB16createIdleThreadEPFvvE:
 144              	.LFB38:
   9:src/tcb.cpp   **** TCB *TCB::createIdleThread(Body body) { return new TCB(body, TIME_SLICE, true); }
 145              		.loc 1 9 39 is_stmt 1
 146              		.cfi_startproc
 147              		.cfi_personality 0x9b,DW.ref.__gxx_personality_v0
 148              		.cfi_lsda 0x1b,.LLSDA38
 149              	.LVL11:
 150 00cc 130101FE 		addi	sp,sp,-32
 151              		.cfi_def_cfa_offset 32
 152 00d0 233C1100 		sd	ra,24(sp)
 153 00d4 23388100 		sd	s0,16(sp)
 154 00d8 23349100 		sd	s1,8(sp)
 155 00dc 23302101 		sd	s2,0(sp)
 156              		.cfi_offset 1, -8
 157              		.cfi_offset 8, -16
 158              		.cfi_offset 9, -24
GAS LISTING /tmp/cclKPlFC.s 			page 5


 159              		.cfi_offset 18, -32
 160 00e0 13040102 		addi	s0,sp,32
 161              		.cfi_def_cfa 8, 0
 162 00e4 13090500 		mv	s2,a0
 163              		.loc 1 9 41
 164              		.loc 1 9 78 is_stmt 0
 165 00e8 13058003 		li	a0,56
 166              	.LVL12:
 167              	.LEHB3:
 168 00ec 97000000 		call	_Znwm@plt
 168      E7800000 
 169              	.LVL13:
 170              	.LEHE3:
 171 00f4 93040500 		mv	s1,a0
 172              	.LVL14:
 173              	.LBB16:
 174              	.LBB17:
  53:src/../h/tcb.hpp ****         }
  54:src/../h/tcb.hpp ****     }
  55:src/../h/tcb.hpp ****     TCB(Body body, uint64 timeSlice, bool put)
  56:src/../h/tcb.hpp ****             : body(body), stack(body != nullptr ? new uint64[STACK_SIZE] : nullptr),
  57:src/../h/tcb.hpp ****               context({(uint64) &threadWrapper,
  58:src/../h/tcb.hpp ****                        stack != nullptr ? (uint64) &stack[STACK_SIZE] : 0}),
  59:src/../h/tcb.hpp ****               timeSlice(timeSlice),
  60:src/../h/tcb.hpp ****               finished(false) {}
 175              		.loc 2 60 29
 176 00f8 23302501 		sd	s2,0(a0)
  56:src/../h/tcb.hpp ****               context({(uint64) &threadWrapper,
 177              		.loc 2 56 49
 178 00fc 630A0900 		beqz	s2,.L14
  56:src/../h/tcb.hpp ****               context({(uint64) &threadWrapper,
 179              		.loc 2 56 72
 180 0100 37250000 		li	a0,8192
 181              	.LEHB4:
 182 0104 97000000 		call	_Znam@plt
 182      E7800000 
 183              	.LVL15:
 184              	.LEHE4:
 185 010c 6F008000 		j	.L11
 186              	.L14:
  56:src/../h/tcb.hpp ****               context({(uint64) &threadWrapper,
 187              		.loc 2 56 49
 188 0110 13050000 		li	a0,0
 189              	.L11:
 190              		.loc 2 60 29
 191 0114 23B4A400 		sd	a0,8(s1)
 192 0118 97070000 		lla	a5,_ZN3TCB13threadWrapperEv
 192      93870700 
 193 0120 23B8F400 		sd	a5,16(s1)
  58:src/../h/tcb.hpp ****               timeSlice(timeSlice),
 194              		.loc 2 58 41
 195 0124 630E0502 		beqz	a0,.L15
  58:src/../h/tcb.hpp ****               timeSlice(timeSlice),
 196              		.loc 2 58 52
 197 0128 B7270000 		li	a5,8192
 198 012c 3305F500 		add	a0,a0,a5
 199              	.L12:
GAS LISTING /tmp/cclKPlFC.s 			page 6


 200              		.loc 2 60 29
 201 0130 23BCA400 		sd	a0,24(s1)
 202 0134 93072000 		li	a5,2
 203 0138 23B0F402 		sd	a5,32(s1)
 204 013c 23840402 		sb	zero,40(s1)
 205 0140 23B80402 		sd	zero,48(s1)
 206              	.LVL16:
 207              	.LBE17:
 208              	.LBE16:
 209              		.loc 1 9 81
 210 0144 13850400 		mv	a0,s1
 211 0148 83308101 		ld	ra,24(sp)
 212              		.cfi_remember_state
 213              		.cfi_restore 1
 214 014c 03340101 		ld	s0,16(sp)
 215              		.cfi_restore 8
 216              		.cfi_def_cfa 2, 32
 217 0150 83348100 		ld	s1,8(sp)
 218              		.cfi_restore 9
 219 0154 03390100 		ld	s2,0(sp)
 220              		.cfi_restore 18
 221              	.LVL17:
 222 0158 13010102 		addi	sp,sp,32
 223              		.cfi_def_cfa_offset 0
 224 015c 67800000 		jr	ra
 225              	.LVL18:
 226              	.L15:
 227              		.cfi_restore_state
 228              	.LBB19:
 229              	.LBB18:
  58:src/../h/tcb.hpp ****               timeSlice(timeSlice),
 230              		.loc 2 58 41
 231 0160 13050000 		li	a0,0
 232 0164 6FF0DFFC 		j	.L12
 233              	.L16:
 234 0168 13090500 		mv	s2,a0
 235              	.LVL19:
 236              	.LBE18:
 237              	.LBE19:
 238              		.loc 1 9 78
 239 016c 13850400 		mv	a0,s1
 240 0170 97000000 		call	_ZdlPv@plt
 240      E7800000 
 241              	.LVL20:
 242 0178 13050900 		mv	a0,s2
 243              	.LEHB5:
 244 017c 97000000 		call	_Unwind_Resume@plt
 244      E7800000 
 245              	.LVL21:
 246              	.LEHE5:
 247              		.cfi_endproc
 248              	.LFE38:
 249              		.section	.gcc_except_table
 250              	.LLSDA38:
 251 002b FF       		.byte	0xff
 252 002c FF       		.byte	0xff
 253 002d 03       		.byte	0x3
GAS LISTING /tmp/cclKPlFC.s 			page 7


 254 002e 27       		.byte	0x27
 255 002f 00000000 		.4byte	.LEHB3-.LFB38
 256 0033 00000000 		.4byte	.LEHE3-.LEHB3
 257 0037 00000000 		.4byte	0
 258 003b 00       		.byte	0
 259 003c 00000000 		.4byte	.LEHB4-.LFB38
 260 0040 00000000 		.4byte	.LEHE4-.LEHB4
 261 0044 00000000 		.4byte	.L16-.LFB38
 262 0048 00       		.byte	0
 263 0049 00000000 		.4byte	.LEHB5-.LFB38
 264 004d 00000000 		.4byte	.LEHE5-.LEHB5
 265 0051 00000000 		.4byte	0
 266 0055 00       		.byte	0
 267              		.text
 269              		.align	2
 270              		.globl	_ZN3TCB5yieldEv
 272              	_ZN3TCB5yieldEv:
 273              	.LFB39:
  10:src/tcb.cpp   **** void TCB::yield() {
 274              		.loc 1 10 19 is_stmt 1
 275              		.cfi_startproc
 276 0184 130101FF 		addi	sp,sp,-16
 277              		.cfi_def_cfa_offset 16
 278 0188 23348100 		sd	s0,8(sp)
 279              		.cfi_offset 8, -8
 280 018c 13040101 		addi	s0,sp,16
 281              		.cfi_def_cfa 8, 0
  11:src/tcb.cpp   ****     __asm__ volatile("ecall");
 282              		.loc 1 11 5
 283              		.loc 1 11 30 is_stmt 0
 284              	#APP
 285              	# 11 "src/tcb.cpp" 1
  12              	};
 286              		ecall
 287              	# 0 "" 2
 288              		.loc 1 12 1
 289              	#NO_APP
 290 0194 03348100 		ld	s0,8(sp)
 291              		.cfi_restore 8
 292              		.cfi_def_cfa 2, 16
 293 0198 13010101 		addi	sp,sp,16
 294              		.cfi_def_cfa_offset 0
 295 019c 67800000 		jr	ra
 296              		.cfi_endproc
 297              	.LFE39:
 299              		.align	2
 300              		.globl	_ZN3TCB13threadWrapperEv
 302              	_ZN3TCB13threadWrapperEv:
 303              	.LFB42:
  13:src/tcb.cpp   **** #include "../h/print.hpp"
  14:src/tcb.cpp   **** void TCB::dispatch() {
  15:src/tcb.cpp   ****     TCB *old = running;
  16:src/tcb.cpp   ****     //printLine("Old: ", (uint64)old);
  17:src/tcb.cpp   ****     //printLine("Idle: ", (uint64)Scheduler::idle);
  18:src/tcb.cpp   ****     if (!old->isFinished()) {
  19:src/tcb.cpp   ****         Scheduler::put(old);
  20:src/tcb.cpp   ****     }
GAS LISTING /tmp/cclKPlFC.s 			page 8


  21:src/tcb.cpp   ****     running = Scheduler::get();
  22:src/tcb.cpp   ****     //printLine("Running: ", (uint64)running);
  23:src/tcb.cpp   ****     TCB::contextSwitch(&old->context, &running->context);
  24:src/tcb.cpp   **** }
  25:src/tcb.cpp   **** void TCB::dispatchSleep() {
  26:src/tcb.cpp   ****     TCB *old = running;
  27:src/tcb.cpp   **** 
  28:src/tcb.cpp   ****     Scheduler::putSleep(old);
  29:src/tcb.cpp   **** 
  30:src/tcb.cpp   ****     running = Scheduler::get();
  31:src/tcb.cpp   **** 
  32:src/tcb.cpp   ****     TCB::contextSwitch(&old->context, &running->context);
  33:src/tcb.cpp   **** }
  34:src/tcb.cpp   **** void TCB::threadWrapper() {
 304              		.loc 1 34 27 is_stmt 1
 305              		.cfi_startproc
 306 01a0 130101FE 		addi	sp,sp,-32
 307              		.cfi_def_cfa_offset 32
 308 01a4 233C1100 		sd	ra,24(sp)
 309 01a8 23388100 		sd	s0,16(sp)
 310 01ac 23349100 		sd	s1,8(sp)
 311              		.cfi_offset 1, -8
 312              		.cfi_offset 8, -16
 313              		.cfi_offset 9, -24
 314 01b0 13040102 		addi	s0,sp,32
 315              		.cfi_def_cfa 8, 0
  35:src/tcb.cpp   ****     Riscv::popSppSpie();
 316              		.loc 1 35 5
 317              		.loc 1 35 22 is_stmt 0
 318 01b4 97000000 		call	_ZN5Riscv10popSppSpieEv@plt
 318      E7800000 
 319              	.LVL22:
  36:src/tcb.cpp   ****     running->body();
 320              		.loc 1 36 5 is_stmt 1
 321              		.loc 1 36 14 is_stmt 0
 322 01bc 97040000 		lla	s1,.LANCHOR0
 322      93840400 
 323 01c4 83B70400 		ld	a5,0(s1)
 324 01c8 83B70700 		ld	a5,0(a5)
 325              		.loc 1 36 18
 326 01cc E7800700 		jalr	a5
 327              	.LVL23:
  37:src/tcb.cpp   ****     running->setFinished(true);
 328              		.loc 1 37 5 is_stmt 1
 329              		.loc 1 37 25 is_stmt 0
 330 01d0 83B70400 		ld	a5,0(s1)
 331              	.LVL24:
 332              	.LBB20:
 333              	.LBB21:
  32:src/../h/tcb.hpp ****     uint64 getTimeSlice() const { return timeSlice; }
 334              		.loc 2 32 32 is_stmt 1
  32:src/../h/tcb.hpp ****     uint64 getTimeSlice() const { return timeSlice; }
 335              		.loc 2 32 46 is_stmt 0
 336 01d4 13071000 		li	a4,1
 337 01d8 2384E702 		sb	a4,40(a5)
 338              	.LVL25:
 339              	.LBE21:
GAS LISTING /tmp/cclKPlFC.s 			page 9


 340              	.LBE20:
  38:src/tcb.cpp   ****     TCB::yield();
 341              		.loc 1 38 5 is_stmt 1
 342              		.loc 1 38 15 is_stmt 0
 343 01dc 97000000 		call	_ZN3TCB5yieldEv
 343      E7800000 
 344              	.LVL26:
  39:src/tcb.cpp   **** }
 345              		.loc 1 39 1
 346 01e4 83308101 		ld	ra,24(sp)
 347              		.cfi_restore 1
 348 01e8 03340101 		ld	s0,16(sp)
 349              		.cfi_restore 8
 350              		.cfi_def_cfa 2, 32
 351 01ec 83348100 		ld	s1,8(sp)
 352              		.cfi_restore 9
 353 01f0 13010102 		addi	sp,sp,32
 354              		.cfi_def_cfa_offset 0
 355 01f4 67800000 		jr	ra
 356              		.cfi_endproc
 357              	.LFE42:
 359              		.align	2
 360              		.globl	_ZN3TCB8dispatchEv
 362              	_ZN3TCB8dispatchEv:
 363              	.LFB40:
  14:src/tcb.cpp   ****     TCB *old = running;
 364              		.loc 1 14 22 is_stmt 1
 365              		.cfi_startproc
 366 01f8 130101FE 		addi	sp,sp,-32
 367              		.cfi_def_cfa_offset 32
 368 01fc 233C1100 		sd	ra,24(sp)
 369 0200 23388100 		sd	s0,16(sp)
 370 0204 23349100 		sd	s1,8(sp)
 371              		.cfi_offset 1, -8
 372              		.cfi_offset 8, -16
 373              		.cfi_offset 9, -24
 374 0208 13040102 		addi	s0,sp,32
 375              		.cfi_def_cfa 8, 0
  15:src/tcb.cpp   ****     //printLine("Old: ", (uint64)old);
 376              		.loc 1 15 5
  15:src/tcb.cpp   ****     //printLine("Old: ", (uint64)old);
 377              		.loc 1 15 10 is_stmt 0
 378 020c 97040000 		ld	s1,.LANCHOR0
 378      83B40400 
 379              	.LVL27:
  18:src/tcb.cpp   ****         Scheduler::put(old);
 380              		.loc 1 18 5 is_stmt 1
 381              	.LBB22:
 382              	.LBB23:
  31:src/../h/tcb.hpp ****     void setFinished(bool f) { TCB::finished = f; }
 383              		.loc 2 31 31
  31:src/../h/tcb.hpp ****     void setFinished(bool f) { TCB::finished = f; }
 384              		.loc 2 31 38 is_stmt 0
 385 0214 83C78402 		lbu	a5,40(s1)
 386              	.LVL28:
 387              	.LBE23:
 388              	.LBE22:
GAS LISTING /tmp/cclKPlFC.s 			page 10


  18:src/tcb.cpp   ****         Scheduler::put(old);
 389              		.loc 1 18 5
 390 0218 638C0702 		beqz	a5,.L26
 391              	.L24:
  21:src/tcb.cpp   ****     //printLine("Running: ", (uint64)running);
 392              		.loc 1 21 5 is_stmt 1
  21:src/tcb.cpp   ****     //printLine("Running: ", (uint64)running);
 393              		.loc 1 21 29 is_stmt 0
 394 021c 97000000 		call	_ZN9Scheduler3getEv@plt
 394      E7800000 
 395              	.LVL29:
  21:src/tcb.cpp   ****     //printLine("Running: ", (uint64)running);
 396              		.loc 1 21 13
 397 0224 97070000 		sd	a0,.LANCHOR0,a5
 397      23B0A700 
  23:src/tcb.cpp   **** }
 398              		.loc 1 23 5 is_stmt 1
  23:src/tcb.cpp   **** }
 399              		.loc 1 23 23 is_stmt 0
 400 022c 93050501 		addi	a1,a0,16
 401 0230 13850401 		addi	a0,s1,16
 402 0234 97000000 		call	_ZN3TCB13contextSwitchEPNS_7ContextES1_@plt
 402      E7800000 
 403              	.LVL30:
  24:src/tcb.cpp   **** void TCB::dispatchSleep() {
 404              		.loc 1 24 1
 405 023c 83308101 		ld	ra,24(sp)
 406              		.cfi_remember_state
 407              		.cfi_restore 1
 408 0240 03340101 		ld	s0,16(sp)
 409              		.cfi_restore 8
 410              		.cfi_def_cfa 2, 32
 411 0244 83348100 		ld	s1,8(sp)
 412              		.cfi_restore 9
 413              	.LVL31:
 414 0248 13010102 		addi	sp,sp,32
 415              		.cfi_def_cfa_offset 0
 416 024c 67800000 		jr	ra
 417              	.LVL32:
 418              	.L26:
 419              		.cfi_restore_state
  19:src/tcb.cpp   ****     }
 420              		.loc 1 19 9 is_stmt 1
  19:src/tcb.cpp   ****     }
 421              		.loc 1 19 23 is_stmt 0
 422 0250 13850400 		mv	a0,s1
 423 0254 97000000 		call	_ZN9Scheduler3putEP3TCB@plt
 423      E7800000 
 424              	.LVL33:
 425 025c 6FF01FFC 		j	.L24
 426              		.cfi_endproc
 427              	.LFE40:
 429              		.align	2
 430              		.globl	_ZN3TCB13dispatchSleepEv
 432              	_ZN3TCB13dispatchSleepEv:
 433              	.LFB41:
  25:src/tcb.cpp   ****     TCB *old = running;
GAS LISTING /tmp/cclKPlFC.s 			page 11


 434              		.loc 1 25 27 is_stmt 1
 435              		.cfi_startproc
 436 0260 130101FE 		addi	sp,sp,-32
 437              		.cfi_def_cfa_offset 32
 438 0264 233C1100 		sd	ra,24(sp)
 439 0268 23388100 		sd	s0,16(sp)
 440 026c 23349100 		sd	s1,8(sp)
 441 0270 23302101 		sd	s2,0(sp)
 442              		.cfi_offset 1, -8
 443              		.cfi_offset 8, -16
 444              		.cfi_offset 9, -24
 445              		.cfi_offset 18, -32
 446 0274 13040102 		addi	s0,sp,32
 447              		.cfi_def_cfa 8, 0
  26:src/tcb.cpp   **** 
 448              		.loc 1 26 5
  26:src/tcb.cpp   **** 
 449              		.loc 1 26 10 is_stmt 0
 450 0278 17090000 		lla	s2,.LANCHOR0
 450      13090900 
 451 0280 83340900 		ld	s1,0(s2)
 452              	.LVL34:
  28:src/tcb.cpp   **** 
 453              		.loc 1 28 5 is_stmt 1
  28:src/tcb.cpp   **** 
 454              		.loc 1 28 24 is_stmt 0
 455 0284 13850400 		mv	a0,s1
 456 0288 97000000 		call	_ZN9Scheduler8putSleepEP3TCB@plt
 456      E7800000 
 457              	.LVL35:
  30:src/tcb.cpp   **** 
 458              		.loc 1 30 5 is_stmt 1
  30:src/tcb.cpp   **** 
 459              		.loc 1 30 29 is_stmt 0
 460 0290 97000000 		call	_ZN9Scheduler3getEv@plt
 460      E7800000 
 461              	.LVL36:
  30:src/tcb.cpp   **** 
 462              		.loc 1 30 13
 463 0298 2330A900 		sd	a0,0(s2)
  32:src/tcb.cpp   **** }
 464              		.loc 1 32 5 is_stmt 1
  32:src/tcb.cpp   **** }
 465              		.loc 1 32 23 is_stmt 0
 466 029c 93050501 		addi	a1,a0,16
 467 02a0 13850401 		addi	a0,s1,16
 468 02a4 97000000 		call	_ZN3TCB13contextSwitchEPNS_7ContextES1_@plt
 468      E7800000 
 469              	.LVL37:
  33:src/tcb.cpp   **** void TCB::threadWrapper() {
 470              		.loc 1 33 1
 471 02ac 83308101 		ld	ra,24(sp)
 472              		.cfi_restore 1
 473 02b0 03340101 		ld	s0,16(sp)
 474              		.cfi_restore 8
 475              		.cfi_def_cfa 2, 32
 476 02b4 83348100 		ld	s1,8(sp)
GAS LISTING /tmp/cclKPlFC.s 			page 12


 477              		.cfi_restore 9
 478              	.LVL38:
 479 02b8 03390100 		ld	s2,0(sp)
 480              		.cfi_restore 18
 481 02bc 13010102 		addi	sp,sp,32
 482              		.cfi_def_cfa_offset 0
 483 02c0 67800000 		jr	ra
 484              		.cfi_endproc
 485              	.LFE41:
 487              		.align	2
 488              		.globl	_ZN3TCB11thread_exitEv
 490              	_ZN3TCB11thread_exitEv:
 491              	.LFB43:
  40:src/tcb.cpp   **** 
  41:src/tcb.cpp   **** void TCB::thread_exit(){
 492              		.loc 1 41 24 is_stmt 1
 493              		.cfi_startproc
 494 02c4 130101FF 		addi	sp,sp,-16
 495              		.cfi_def_cfa_offset 16
 496 02c8 23341100 		sd	ra,8(sp)
 497 02cc 23308100 		sd	s0,0(sp)
 498              		.cfi_offset 1, -8
 499              		.cfi_offset 8, -16
 500 02d0 13040101 		addi	s0,sp,16
 501              		.cfi_def_cfa 8, 0
  42:src/tcb.cpp   ****     running->setFinished(true); // Also can running = Scheduler::get(); TCB::contextSwitch...;
 502              		.loc 1 42 5
 503              	.LVL39:
 504              	.LBB24:
 505              	.LBB25:
  32:src/../h/tcb.hpp ****     uint64 getTimeSlice() const { return timeSlice; }
 506              		.loc 2 32 32
  32:src/../h/tcb.hpp ****     uint64 getTimeSlice() const { return timeSlice; }
 507              		.loc 2 32 46 is_stmt 0
 508 02d4 97070000 		ld	a5,.LANCHOR0
 508      83B70700 
 509 02dc 13071000 		li	a4,1
 510 02e0 2384E702 		sb	a4,40(a5)
 511              	.LVL40:
 512              	.LBE25:
 513              	.LBE24:
  43:src/tcb.cpp   ****     TCB::yield();
 514              		.loc 1 43 5 is_stmt 1
 515              		.loc 1 43 15 is_stmt 0
 516 02e4 97000000 		call	_ZN3TCB5yieldEv
 516      E7800000 
 517              	.LVL41:
  44:src/tcb.cpp   **** }
 518              		.loc 1 44 1
 519 02ec 83308100 		ld	ra,8(sp)
 520              		.cfi_restore 1
 521 02f0 03340100 		ld	s0,0(sp)
 522              		.cfi_restore 8
 523              		.cfi_def_cfa 2, 16
 524 02f4 13010101 		addi	sp,sp,16
 525              		.cfi_def_cfa_offset 0
 526 02f8 67800000 		jr	ra
GAS LISTING /tmp/cclKPlFC.s 			page 13


 527              		.cfi_endproc
 528              	.LFE43:
 530              		.align	2
 531              		.globl	_ZN3TCB10time_sleepEm
 533              	_ZN3TCB10time_sleepEm:
 534              	.LFB44:
  45:src/tcb.cpp   **** #include "../h/print.hpp"
  46:src/tcb.cpp   **** #include "../h/riscv.hpp"
  47:src/tcb.cpp   **** int TCB::time_sleep (time_t t){
 535              		.loc 1 47 31 is_stmt 1
 536              		.cfi_startproc
 537              	.LVL42:
 538 02fc 130101FF 		addi	sp,sp,-16
 539              		.cfi_def_cfa_offset 16
 540 0300 23341100 		sd	ra,8(sp)
 541 0304 23308100 		sd	s0,0(sp)
 542              		.cfi_offset 1, -8
 543              		.cfi_offset 8, -16
 544 0308 13040101 		addi	s0,sp,16
 545              		.cfi_def_cfa 8, 0
  48:src/tcb.cpp   ****     running->sleeping = t;
 546              		.loc 1 48 5
 547              		.loc 1 48 14 is_stmt 0
 548 030c 97070000 		ld	a5,.LANCHOR0
 548      83B70700 
 549              		.loc 1 48 23
 550 0314 23B8A702 		sd	a0,48(a5)
  49:src/tcb.cpp   ****     TCB::yield();
 551              		.loc 1 49 5 is_stmt 1
 552              		.loc 1 49 15 is_stmt 0
 553 0318 97000000 		call	_ZN3TCB5yieldEv
 553      E7800000 
 554              	.LVL43:
  50:src/tcb.cpp   ****     return 0;
 555              		.loc 1 50 5 is_stmt 1
  51:src/tcb.cpp   **** }...
 556              		.loc 1 51 1 is_stmt 0
 557 0320 13050000 		li	a0,0
 558 0324 83308100 		ld	ra,8(sp)
 559              		.cfi_restore 1
 560 0328 03340100 		ld	s0,0(sp)
 561              		.cfi_restore 8
 562              		.cfi_def_cfa 2, 16
 563 032c 13010101 		addi	sp,sp,16
 564              		.cfi_def_cfa_offset 0
 565 0330 67800000 		jr	ra
 566              		.cfi_endproc
 567              	.LFE44:
 569              		.globl	_ZN3TCB16timeSLiceCounterE
 570              		.globl	_ZN3TCB7runningE
 571              		.bss
 572              		.align	3
 573              		.set	.LANCHOR0,. + 0
 576              	_ZN3TCB7runningE:
 577 0000 00000000 		.zero	8
 577      00000000 
 580              	_ZN3TCB16timeSLiceCounterE:
GAS LISTING /tmp/cclKPlFC.s 			page 14


 581 0008 00000000 		.zero	8
 581      00000000 
 582              		.text
 583              	.Letext0:
 584              		.file 3 "src/../h/../lib/hw.h"
 585              		.file 4 "src/../h/scheduler.hpp"
 586              		.file 5 "src/../h/riscv.hpp"
 3196              		.align	3
 3199              	DW.ref.__gxx_personality_v0:
 3200 0000 00000000 		.dword	__gxx_personality_v0
 3200      00000000 
 3201              		.ident	"GCC: (Ubuntu 9.4.0-1ubuntu1~20.04) 9.4.0"
 3202              		.section	.note.GNU-stack,"",@progbits
GAS LISTING /tmp/cclKPlFC.s 			page 15

