GAS LISTING /tmp/ccIKg6Dn.s 			page 1


   1              		.file	"workers.cpp"
   2              		.option nopic
   3              		.option norelax
   4              		.attribute arch, "rv64i2p0_m2p0_a2p0"
   5              		.attribute unaligned_access, 0
   6              		.attribute stack_align, 16
   7              		.text
   8              	.Ltext0:
   9              		.align	2
  11              	_ZL9fibonaccim:
  12              	.LFB16:
  13              		.file 1 "src/workers.cpp"
   1:src/workers.cpp **** 
   2:src/workers.cpp **** #include "../h/workers.hpp"
   3:src/workers.cpp **** #include "../h/ccb.hpp"
   4:src/workers.cpp **** #include "../h/print.hpp"
   5:src/workers.cpp **** #include "../lib/hw.h"
   6:src/workers.cpp **** 
   7:src/workers.cpp **** static uint64 fibonacci(uint64 n) {
  14              		.loc 1 7 35
  15              		.cfi_startproc
  16              	.LVL0:
  17 0000 130101FE 		addi	sp,sp,-32
  18              		.cfi_def_cfa_offset 32
  19 0004 233C1100 		sd	ra,24(sp)
  20 0008 23388100 		sd	s0,16(sp)
  21 000c 23349100 		sd	s1,8(sp)
  22 0010 23302101 		sd	s2,0(sp)
  23              		.cfi_offset 1, -8
  24              		.cfi_offset 8, -16
  25              		.cfi_offset 9, -24
  26              		.cfi_offset 18, -32
  27 0014 13040102 		addi	s0,sp,32
  28              		.cfi_def_cfa 8, 0
  29 0018 93040500 		mv	s1,a0
   8:src/workers.cpp ****   if (n == 0 || n == 1) {
  30              		.loc 1 8 3
  31 001c 93071000 		li	a5,1
  32 0020 63F6A702 		bleu	a0,a5,.L1
   9:src/workers.cpp ****     return n;
  10:src/workers.cpp ****   }
  11:src/workers.cpp ****   if (n % 4 == 0)
  33              		.loc 1 11 3
  34              		.loc 1 11 9 is_stmt 0
  35 0024 93773500 		andi	a5,a0,3
  36              		.loc 1 11 3
  37 0028 638E0702 		beqz	a5,.L6
  38              	.LVL1:
  39              	.L3:
  12:src/workers.cpp ****     CCB::yield();
  13:src/workers.cpp ****   return fibonacci(n - 1) + fibonacci(n - 2);
  40              		.loc 1 13 3 is_stmt 1
  41              		.loc 1 13 19 is_stmt 0
  42 002c 1385F4FF 		addi	a0,s1,-1
  43 0030 97000000 		call	_ZL9fibonaccim
  43      E7800000 
  44              	.LVL2:
GAS LISTING /tmp/ccIKg6Dn.s 			page 2


  45 0038 13090500 		mv	s2,a0
  46              		.loc 1 13 38
  47 003c 1385E4FF 		addi	a0,s1,-2
  48 0040 97000000 		call	_ZL9fibonaccim
  48      E7800000 
  49              	.LVL3:
  50              		.loc 1 13 44
  51 0048 3305A900 		add	a0,s2,a0
  52              	.L1:
  14:src/workers.cpp **** }
  53              		.loc 1 14 1
  54 004c 83308101 		ld	ra,24(sp)
  55              		.cfi_remember_state
  56              		.cfi_restore 1
  57 0050 03340101 		ld	s0,16(sp)
  58              		.cfi_restore 8
  59              		.cfi_def_cfa 2, 32
  60 0054 83348100 		ld	s1,8(sp)
  61              		.cfi_restore 9
  62              	.LVL4:
  63 0058 03390100 		ld	s2,0(sp)
  64              		.cfi_restore 18
  65 005c 13010102 		addi	sp,sp,32
  66              		.cfi_def_cfa_offset 0
  67 0060 67800000 		jr	ra
  68              	.LVL5:
  69              	.L6:
  70              		.cfi_restore_state
  12:src/workers.cpp ****     CCB::yield();
  71              		.loc 1 12 5 is_stmt 1
  12:src/workers.cpp ****     CCB::yield();
  72              		.loc 1 12 15 is_stmt 0
  73 0064 97000000 		call	_ZN3CCB5yieldEv
  73      E7800000 
  74              	.LVL6:
  75 006c 6FF01FFC 		j	.L3
  76              		.cfi_endproc
  77              	.LFE16:
  79              		.section	.rodata.str1.8,"aMS",@progbits,1
  80              		.align	3
  81              	.LC0:
  82 0000 413A2069 		.string	"A: i="
  82      3D00
  83 0006 0000     		.align	3
  84              	.LC1:
  85 0008 0A00     		.string	"\n"
  86 000a 00000000 		.align	3
  86      0000
  87              	.LC2:
  88 0010 413A2079 		.string	"A: yield\n"
  88      69656C64 
  88      0A00
  89 001a 00000000 		.align	3
  89      0000
  90              	.LC3:
  91 0020 413A2074 		.string	"A: t1="
  91      313D00
GAS LISTING /tmp/ccIKg6Dn.s 			page 3


  92 0027 00       		.align	3
  93              	.LC4:
  94 0028 413A2066 		.string	"A: fibonaci="
  94      69626F6E 
  94      6163693D 
  94      00
  95              		.text
  96              		.align	2
  97              		.globl	_Z11workerBodyAv
  99              	_Z11workerBodyAv:
 100              	.LFB17:
  15:src/workers.cpp **** 
  16:src/workers.cpp **** void workerBodyA() {
 101              		.loc 1 16 20 is_stmt 1
 102              		.cfi_startproc
 103 0070 130101FE 		addi	sp,sp,-32
 104              		.cfi_def_cfa_offset 32
 105 0074 233C1100 		sd	ra,24(sp)
 106 0078 23388100 		sd	s0,16(sp)
 107 007c 23349100 		sd	s1,8(sp)
 108 0080 23302101 		sd	s2,0(sp)
 109              		.cfi_offset 1, -8
 110              		.cfi_offset 8, -16
 111              		.cfi_offset 9, -24
 112              		.cfi_offset 18, -32
 113 0084 13040102 		addi	s0,sp,32
 114              		.cfi_def_cfa 8, 0
  17:src/workers.cpp ****   uint8 i = 0;
 115              		.loc 1 17 3
 116              	.LVL7:
 117              		.loc 1 17 9 is_stmt 0
 118 0088 93040000 		li	s1,0
 119 008c 6F008003 		j	.L9
 120              	.LVL8:
 121              	.L13:
  18:src/workers.cpp ****   for (; i < 3; i++) {
  19:src/workers.cpp ****     printString("A: i=");
 122              		.loc 1 19 5 is_stmt 1 discriminator 1
 123              		.loc 1 19 16 is_stmt 0 discriminator 1
 124 0090 17050000 		lla	a0,.LC0
 124      13050500 
 125 0098 97000000 		call	_Z11printStringPKc
 125      E7800000 
 126              	.LVL9:
  20:src/workers.cpp ****     printInteger(i);
 127              		.loc 1 20 5 is_stmt 1 discriminator 1
 128              		.loc 1 20 17 is_stmt 0 discriminator 1
 129 00a0 13850400 		mv	a0,s1
 130 00a4 97000000 		call	_Z12printIntegerm
 130      E7800000 
 131              	.LVL10:
  21:src/workers.cpp ****     printString("\n");
 132              		.loc 1 21 5 is_stmt 1 discriminator 1
 133              		.loc 1 21 16 is_stmt 0 discriminator 1
 134 00ac 17050000 		lla	a0,.LC1
 134      13050500 
 135 00b4 97000000 		call	_Z11printStringPKc
GAS LISTING /tmp/ccIKg6Dn.s 			page 4


 135      E7800000 
 136              	.LVL11:
  18:src/workers.cpp ****   for (; i < 3; i++) {
 137              		.loc 1 18 3 is_stmt 1 discriminator 1
 138 00bc 9B841400 		addiw	s1,s1,1
 139              	.LVL12:
 140 00c0 93F4F40F 		andi	s1,s1,0xff
 141              	.LVL13:
 142              	.L9:
  18:src/workers.cpp ****   for (; i < 3; i++) {
 143              		.loc 1 18 3 discriminator 2
  18:src/workers.cpp ****   for (; i < 3; i++) {
 144              		.loc 1 18 12 discriminator 2
 145 00c4 93072000 		li	a5,2
 146 00c8 E3F497FC 		bleu	s1,a5,.L13
  22:src/workers.cpp ****   }
  23:src/workers.cpp ****   printString("A: yield\n");
 147              		.loc 1 23 3
 148              		.loc 1 23 14 is_stmt 0
 149 00cc 17050000 		lla	a0,.LC2
 149      13050500 
 150 00d4 97000000 		call	_Z11printStringPKc
 150      E7800000 
 151              	.LVL14:
  24:src/workers.cpp ****   __asm__("li t1, 7");
 152              		.loc 1 24 3 is_stmt 1
 153              		.loc 1 24 22 is_stmt 0
 154              	 #APP
 155              	# 24 "src/workers.cpp" 1
  25              	  CCB::yield();
 156              		li t1, 7
 157              	# 0 "" 2
 158              		.loc 1 25 3 is_stmt 1
 159              		.loc 1 25 13 is_stmt 0
 160              	 #NO_APP
 161 00e0 97000000 		call	_ZN3CCB5yieldEv
 161      E7800000 
 162              	.LVL15:
  26:src/workers.cpp ****   uint64 t1 = 0;
 163              		.loc 1 26 3 is_stmt 1
  27:src/workers.cpp ****   __asm__("mv %[t1], t1" : [t1] "=r"(t1));
 164              		.loc 1 27 3
 165              		.loc 1 27 42 is_stmt 0
 166              	 #APP
 167              	# 27 "src/workers.cpp" 1
  28              	  printString("A: t1=");
 168              		mv s2, t1
 169              	# 0 "" 2
 170              	.LVL16:
 171              		.loc 1 28 3 is_stmt 1
 172              		.loc 1 28 14 is_stmt 0
 173              	 #NO_APP
 174 00ec 17050000 		lla	a0,.LC3
 174      13050500 
 175 00f4 97000000 		call	_Z11printStringPKc
 175      E7800000 
 176              	.LVL17:
GAS LISTING /tmp/ccIKg6Dn.s 			page 5


  29:src/workers.cpp ****   printInteger(t1);
 177              		.loc 1 29 3 is_stmt 1
 178              		.loc 1 29 15 is_stmt 0
 179 00fc 13050900 		mv	a0,s2
 180 0100 97000000 		call	_Z12printIntegerm
 180      E7800000 
 181              	.LVL18:
  30:src/workers.cpp ****   printString("\n");
 182              		.loc 1 30 3 is_stmt 1
 183              		.loc 1 30 14 is_stmt 0
 184 0108 17050000 		lla	a0,.LC1
 184      13050500 
 185 0110 97000000 		call	_Z11printStringPKc
 185      E7800000 
 186              	.LVL19:
  31:src/workers.cpp **** 
  32:src/workers.cpp ****   uint64 result = fibonacci(20);
 187              		.loc 1 32 3 is_stmt 1
 188              		.loc 1 32 28 is_stmt 0
 189 0118 13054001 		li	a0,20
 190 011c 97000000 		call	_ZL9fibonaccim
 190      E7800000 
 191              	.LVL20:
 192 0124 13090500 		mv	s2,a0
 193              	.LVL21:
  33:src/workers.cpp ****   printString("A: fibonaci=");
 194              		.loc 1 33 3 is_stmt 1
 195              		.loc 1 33 14 is_stmt 0
 196 0128 17050000 		lla	a0,.LC4
 196      13050500 
 197              	.LVL22:
 198 0130 97000000 		call	_Z11printStringPKc
 198      E7800000 
 199              	.LVL23:
  34:src/workers.cpp ****   printInteger(result);
 200              		.loc 1 34 3 is_stmt 1
 201              		.loc 1 34 15 is_stmt 0
 202 0138 13050900 		mv	a0,s2
 203 013c 97000000 		call	_Z12printIntegerm
 203      E7800000 
 204              	.LVL24:
  35:src/workers.cpp ****   printString("\n");
 205              		.loc 1 35 3 is_stmt 1
 206              		.loc 1 35 14 is_stmt 0
 207 0144 17050000 		lla	a0,.LC1
 207      13050500 
 208 014c 97000000 		call	_Z11printStringPKc
 208      E7800000 
 209              	.LVL25:
 210 0154 6F008003 		j	.L11
 211              	.L14:
  36:src/workers.cpp ****   for (; i < 6; i++) {
  37:src/workers.cpp ****     printString("A: i=");
 212              		.loc 1 37 5 is_stmt 1 discriminator 1
 213              		.loc 1 37 16 is_stmt 0 discriminator 1
 214 0158 17050000 		lla	a0,.LC0
 214      13050500 
GAS LISTING /tmp/ccIKg6Dn.s 			page 6


 215 0160 97000000 		call	_Z11printStringPKc
 215      E7800000 
 216              	.LVL26:
  38:src/workers.cpp ****     printInteger(i);
 217              		.loc 1 38 5 is_stmt 1 discriminator 1
 218              		.loc 1 38 17 is_stmt 0 discriminator 1
 219 0168 13850400 		mv	a0,s1
 220 016c 97000000 		call	_Z12printIntegerm
 220      E7800000 
 221              	.LVL27:
  39:src/workers.cpp ****     printString("\n");
 222              		.loc 1 39 5 is_stmt 1 discriminator 1
 223              		.loc 1 39 16 is_stmt 0 discriminator 1
 224 0174 17050000 		lla	a0,.LC1
 224      13050500 
 225 017c 97000000 		call	_Z11printStringPKc
 225      E7800000 
 226              	.LVL28:
  36:src/workers.cpp ****   for (; i < 6; i++) {
 227              		.loc 1 36 3 is_stmt 1 discriminator 1
 228 0184 9B841400 		addiw	s1,s1,1
 229              	.LVL29:
 230 0188 93F4F40F 		andi	s1,s1,0xff
 231              	.LVL30:
 232              	.L11:
  36:src/workers.cpp ****   for (; i < 6; i++) {
 233              		.loc 1 36 3 discriminator 2
  36:src/workers.cpp ****   for (; i < 6; i++) {
 234              		.loc 1 36 12 discriminator 2
 235 018c 93075000 		li	a5,5
 236 0190 E3F497FC 		bleu	s1,a5,.L14
  40:src/workers.cpp ****   }
  41:src/workers.cpp ****   CCB::running->setFinished(true);
 237              		.loc 1 41 3
 238              	.LVL31:
 239              	.LBB6:
 240              	.LBB7:
 241              		.file 2 "src/../h/ccb.hpp"
   1:src/../h/ccb.hpp **** #ifndef cbb_hpp
   2:src/../h/ccb.hpp **** #define cbb_hpp
   3:src/../h/ccb.hpp **** #include "../lib/hw.h"
   4:src/../h/ccb.hpp **** #include "scheduler.hpp"
   5:src/../h/ccb.hpp **** // Vezbe 7
   6:src/../h/ccb.hpp **** 
   7:src/../h/ccb.hpp **** class CCB {
   8:src/../h/ccb.hpp **** public:
   9:src/../h/ccb.hpp ****   using Body = void (*)();
  10:src/../h/ccb.hpp ****   static CCB *createCoroutine(Body body);
  11:src/../h/ccb.hpp ****   bool isFinished() const { return finished; }
  12:src/../h/ccb.hpp ****   void setFinished(bool f) { CCB::finished = f; }
 242              		.loc 2 12 30
 243              		.loc 2 12 44 is_stmt 0
 244 0194 97070000 		ld	a5,_ZN3CCB7runningE
 244      83B70700 
 245 019c 13071000 		li	a4,1
 246 01a0 2380E702 		sb	a4,32(a5)
 247              	.LVL32:
GAS LISTING /tmp/ccIKg6Dn.s 			page 7


 248              	.LBE7:
 249              	.LBE6:
  42:src/workers.cpp ****   CCB::yield();
 250              		.loc 1 42 3 is_stmt 1
 251              		.loc 1 42 13 is_stmt 0
 252 01a4 97000000 		call	_ZN3CCB5yieldEv
 252      E7800000 
 253              	.LVL33:
  43:src/workers.cpp **** }
 254              		.loc 1 43 1
 255 01ac 83308101 		ld	ra,24(sp)
 256              		.cfi_restore 1
 257 01b0 03340101 		ld	s0,16(sp)
 258              		.cfi_restore 8
 259              		.cfi_def_cfa 2, 32
 260 01b4 83348100 		ld	s1,8(sp)
 261              		.cfi_restore 9
 262              	.LVL34:
 263 01b8 03390100 		ld	s2,0(sp)
 264              		.cfi_restore 18
 265              	.LVL35:
 266 01bc 13010102 		addi	sp,sp,32
 267              		.cfi_def_cfa_offset 0
 268 01c0 67800000 		jr	ra
 269              		.cfi_endproc
 270              	.LFE17:
 272              		.section	.rodata.str1.8
 273 0035 000000   		.align	3
 274              	.LC5:
 275 0038 423A2069 		.string	"B: i="
 275      3D00
 276 003e 0000     		.align	3
 277              	.LC6:
 278 0040 423A2079 		.string	"B: yield\n"
 278      69656C64 
 278      0A00
 279 004a 00000000 		.align	3
 279      0000
 280              	.LC7:
 281 0050 423A2066 		.string	"B: fibonaci="
 281      69626F6E 
 281      6163693D 
 281      00
 282              		.text
 283              		.align	2
 284              		.globl	_Z11workerBodyBv
 286              	_Z11workerBodyBv:
 287              	.LFB18:
  44:src/workers.cpp **** 
  45:src/workers.cpp **** void workerBodyB() {
 288              		.loc 1 45 20 is_stmt 1
 289              		.cfi_startproc
 290 01c4 130101FE 		addi	sp,sp,-32
 291              		.cfi_def_cfa_offset 32
 292 01c8 233C1100 		sd	ra,24(sp)
 293 01cc 23388100 		sd	s0,16(sp)
 294 01d0 23349100 		sd	s1,8(sp)
GAS LISTING /tmp/ccIKg6Dn.s 			page 8


 295 01d4 23302101 		sd	s2,0(sp)
 296              		.cfi_offset 1, -8
 297              		.cfi_offset 8, -16
 298              		.cfi_offset 9, -24
 299              		.cfi_offset 18, -32
 300 01d8 13040102 		addi	s0,sp,32
 301              		.cfi_def_cfa 8, 0
  46:src/workers.cpp ****   uint8 i = 10;
 302              		.loc 1 46 3
 303              	.LVL36:
 304              		.loc 1 46 9 is_stmt 0
 305 01dc 9304A000 		li	s1,10
 306 01e0 6F008003 		j	.L17
 307              	.LVL37:
 308              	.L21:
  47:src/workers.cpp ****   for (; i < 13; i++) {
  48:src/workers.cpp ****     printString("B: i=");
 309              		.loc 1 48 5 is_stmt 1 discriminator 1
 310              		.loc 1 48 16 is_stmt 0 discriminator 1
 311 01e4 17050000 		lla	a0,.LC5
 311      13050500 
 312 01ec 97000000 		call	_Z11printStringPKc
 312      E7800000 
 313              	.LVL38:
  49:src/workers.cpp ****     printInteger(i);
 314              		.loc 1 49 5 is_stmt 1 discriminator 1
 315              		.loc 1 49 17 is_stmt 0 discriminator 1
 316 01f4 13850400 		mv	a0,s1
 317 01f8 97000000 		call	_Z12printIntegerm
 317      E7800000 
 318              	.LVL39:
  50:src/workers.cpp ****     printString("\n");
 319              		.loc 1 50 5 is_stmt 1 discriminator 1
 320              		.loc 1 50 16 is_stmt 0 discriminator 1
 321 0200 17050000 		lla	a0,.LC1
 321      13050500 
 322 0208 97000000 		call	_Z11printStringPKc
 322      E7800000 
 323              	.LVL40:
  47:src/workers.cpp ****   for (; i < 13; i++) {
 324              		.loc 1 47 3 is_stmt 1 discriminator 1
 325 0210 9B841400 		addiw	s1,s1,1
 326              	.LVL41:
 327 0214 93F4F40F 		andi	s1,s1,0xff
 328              	.LVL42:
 329              	.L17:
  47:src/workers.cpp ****   for (; i < 13; i++) {
 330              		.loc 1 47 3 discriminator 2
  47:src/workers.cpp ****   for (; i < 13; i++) {
 331              		.loc 1 47 12 discriminator 2
 332 0218 9307C000 		li	a5,12
 333 021c E3F497FC 		bleu	s1,a5,.L21
  51:src/workers.cpp ****   }
  52:src/workers.cpp ****   printString("B: yield\n");
 334              		.loc 1 52 3
 335              		.loc 1 52 14 is_stmt 0
 336 0220 17050000 		lla	a0,.LC6
GAS LISTING /tmp/ccIKg6Dn.s 			page 9


 336      13050500 
 337 0228 97000000 		call	_Z11printStringPKc
 337      E7800000 
 338              	.LVL43:
  53:src/workers.cpp ****   __asm__("li t1, 1");
 339              		.loc 1 53 3 is_stmt 1
 340              		.loc 1 53 22 is_stmt 0
 341              	 #APP
 342              	# 53 "src/workers.cpp" 1
  54              	  CCB::yield();
 343              		li t1, 1
 344              	# 0 "" 2
 345              		.loc 1 54 3 is_stmt 1
 346              		.loc 1 54 13 is_stmt 0
 347              	 #NO_APP
 348 0234 97000000 		call	_ZN3CCB5yieldEv
 348      E7800000 
 349              	.LVL44:
  55:src/workers.cpp **** 
  56:src/workers.cpp ****   uint64 result = fibonacci(23);
 350              		.loc 1 56 3 is_stmt 1
 351              		.loc 1 56 28 is_stmt 0
 352 023c 13057001 		li	a0,23
 353 0240 97000000 		call	_ZL9fibonaccim
 353      E7800000 
 354              	.LVL45:
 355 0248 13090500 		mv	s2,a0
 356              	.LVL46:
  57:src/workers.cpp ****   printString("B: fibonaci=");
 357              		.loc 1 57 3 is_stmt 1
 358              		.loc 1 57 14 is_stmt 0
 359 024c 17050000 		lla	a0,.LC7
 359      13050500 
 360              	.LVL47:
 361 0254 97000000 		call	_Z11printStringPKc
 361      E7800000 
 362              	.LVL48:
  58:src/workers.cpp ****   printInteger(result);
 363              		.loc 1 58 3 is_stmt 1
 364              		.loc 1 58 15 is_stmt 0
 365 025c 13050900 		mv	a0,s2
 366 0260 97000000 		call	_Z12printIntegerm
 366      E7800000 
 367              	.LVL49:
  59:src/workers.cpp ****   printString("\n");
 368              		.loc 1 59 3 is_stmt 1
 369              		.loc 1 59 14 is_stmt 0
 370 0268 17050000 		lla	a0,.LC1
 370      13050500 
 371 0270 97000000 		call	_Z11printStringPKc
 371      E7800000 
 372              	.LVL50:
 373 0278 6F008003 		j	.L19
 374              	.L22:
  60:src/workers.cpp ****   for (; i < 16; i++) {
  61:src/workers.cpp ****     printString("B: i=");
 375              		.loc 1 61 5 is_stmt 1 discriminator 1
GAS LISTING /tmp/ccIKg6Dn.s 			page 10


 376              		.loc 1 61 16 is_stmt 0 discriminator 1
 377 027c 17050000 		lla	a0,.LC5
 377      13050500 
 378 0284 97000000 		call	_Z11printStringPKc
 378      E7800000 
 379              	.LVL51:
  62:src/workers.cpp ****     printInteger(i);
 380              		.loc 1 62 5 is_stmt 1 discriminator 1
 381              		.loc 1 62 17 is_stmt 0 discriminator 1
 382 028c 13850400 		mv	a0,s1
 383 0290 97000000 		call	_Z12printIntegerm
 383      E7800000 
 384              	.LVL52:
  63:src/workers.cpp ****     printString("\n");
 385              		.loc 1 63 5 is_stmt 1 discriminator 1
 386              		.loc 1 63 16 is_stmt 0 discriminator 1
 387 0298 17050000 		lla	a0,.LC1
 387      13050500 
 388 02a0 97000000 		call	_Z11printStringPKc
 388      E7800000 
 389              	.LVL53:
  60:src/workers.cpp ****   for (; i < 16; i++) {
 390              		.loc 1 60 3 is_stmt 1 discriminator 1
 391 02a8 9B841400 		addiw	s1,s1,1
 392              	.LVL54:
 393 02ac 93F4F40F 		andi	s1,s1,0xff
 394              	.LVL55:
 395              	.L19:
  60:src/workers.cpp ****   for (; i < 16; i++) {
 396              		.loc 1 60 3 discriminator 2
  60:src/workers.cpp ****   for (; i < 16; i++) {
 397              		.loc 1 60 12 discriminator 2
 398 02b0 9307F000 		li	a5,15
 399 02b4 E3F497FC 		bleu	s1,a5,.L22
  64:src/workers.cpp ****   }
  65:src/workers.cpp ****   CCB::running->setFinished(true);
 400              		.loc 1 65 3
 401              	.LVL56:
 402              	.LBB8:
 403              	.LBB9:
 404              		.loc 2 12 30
 405              		.loc 2 12 44 is_stmt 0
 406 02b8 97070000 		ld	a5,_ZN3CCB7runningE
 406      83B70700 
 407 02c0 13071000 		li	a4,1
 408 02c4 2380E702 		sb	a4,32(a5)
 409              	.LVL57:
 410              	.LBE9:
 411              	.LBE8:
  66:src/workers.cpp ****   CCB::yield();
 412              		.loc 1 66 3 is_stmt 1
 413              		.loc 1 66 13 is_stmt 0
 414 02c8 97000000 		call	_ZN3CCB5yieldEv
 414      E7800000 
 415              	.LVL58:
  67:src/workers.cpp **** }...
 416              		.loc 1 67 1
GAS LISTING /tmp/ccIKg6Dn.s 			page 11


 417 02d0 83308101 		ld	ra,24(sp)
 418              		.cfi_restore 1
 419 02d4 03340101 		ld	s0,16(sp)
 420              		.cfi_restore 8
 421              		.cfi_def_cfa 2, 32
 422 02d8 83348100 		ld	s1,8(sp)
 423              		.cfi_restore 9
 424              	.LVL59:
 425 02dc 03390100 		ld	s2,0(sp)
 426              		.cfi_restore 18
 427              	.LVL60:
 428 02e0 13010102 		addi	sp,sp,32
 429              		.cfi_def_cfa_offset 0
 430 02e4 67800000 		jr	ra
 431              		.cfi_endproc
 432              	.LFE18:
 434              	.Letext0:
 435              		.file 3 "src/../h/../lib/hw.h"
 436              		.file 4 "src/../h/print.hpp"
GAS LISTING /tmp/ccIKg6Dn.s 			page 12

